

Microchip Technology PIC18 LITE Macro Assembler V1.44 build -154322312 
                                                                                               Fri Jun 08 02:40:56 2018

Microchip Technology Omniscient Code Generator v1.44 (Free mode) build 201709140600
     1                           	processor	18F2331
     2                           	fnconf	rparam,??,?,0
     3                           	opt	pw 120
     4                           	opt	lm
     5                           	psect	idataBANK0,global,class=CODE,delta=1,noexec
     6                           	psect	mediumconst,global,reloc=2,class=MEDIUMCONST,delta=1,noexec
     7                           	psect	cinit,global,reloc=2,class=CODE,delta=1
     8                           	psect	bssCOMRAM,global,class=COMRAM,space=1,delta=1,noexec
     9                           	psect	bssBANK0,global,class=BANK0,space=1,delta=1,lowdata,noexec
    10                           	psect	dataBANK0,global,class=BANK0,space=1,delta=1,lowdata,noexec
    11                           	psect	cstackBANK0,global,class=BANK0,space=1,delta=1,noexec
    12                           	psect	cstackCOMRAM,global,class=COMRAM,space=1,delta=1,noexec
    13                           	psect	text0,global,reloc=2,class=CODE,delta=1
    14                           	psect	text1,global,reloc=2,class=CODE,delta=1
    15                           	psect	text2,global,reloc=2,class=CODE,delta=1
    16                           	psect	text3,global,reloc=2,class=CODE,delta=1
    17                           	psect	text4,global,reloc=2,class=CODE,delta=1
    18                           	psect	text5,global,reloc=2,class=CODE,delta=1
    19                           	psect	text6,global,reloc=2,class=CODE,delta=1
    20                           	psect	text7,global,reloc=2,class=CODE,delta=1
    21                           	psect	intcode,global,reloc=2,class=CODE,delta=1
    22                           	psect	intsave_regs,global,class=BIGRAM,space=1,delta=1,noexec
    23                           	psect	rparam,global,class=COMRAM,space=1,delta=1,noexec
    24                           	psect	temp,global,ovrld,common,class=COMRAM,space=1,delta=1
    25  0000                     
    26                           ; Version 1.44
    27                           ; Generated 14/09/2017 GMT
    28                           ; 
    29                           ; Copyright © 2017, Microchip Technology Inc. and its subsidiaries ("Microchip")
    30                           ; All rights reserved.
    31                           ; 
    32                           ; This software is developed by Microchip Technology Inc. and its subsidiaries ("Microch
      +                          ip").
    33                           ; 
    34                           ; Redistribution and use in source and binary forms, with or without modification, are
    35                           ; permitted provided that the following conditions are met:
    36                           ; 
    37                           ;     1. Redistributions of source code must retain the above copyright notice, this lis
      +                          t of
    38                           ;        conditions and the following disclaimer.
    39                           ; 
    40                           ;     2. Redistributions in binary form must reproduce the above copyright notice, this 
      +                          list
    41                           ;        of conditions and the following disclaimer in the documentation and/or other
    42                           ;        materials provided with the distribution.
    43                           ; 
    44                           ;     3. Microchip's name may not be used to endorse or promote products derived from th
      +                          is
    45                           ;        software without specific prior written permission.
    46                           ; 
    47                           ; THIS SOFTWARE IS PROVIDED BY MICROCHIP "AS IS" AND ANY EXPRESS OR IMPLIED WARRANTIES,
    48                           ; INCLUDING, BUT NOT LIMITED TO, THE IMPLIED WARRANTIES OF MERCHANTABILITY AND FITNESS F
      +                          OR
    49                           ; PURPOSE ARE DISCLAIMED.  IN NO EVENT SHALL MICROCHIP BE LIABLE FOR ANY DIRECT, INDIREC
      +                          T,
    50                           ; INCIDENTAL, SPECIAL, EXEMPLARY, OR CONSEQUENTIAL DAMAGES (INCLUDING BUT NOT LIMITED TO
    51                           ; PROCUREMENT OF SUBSTITUTE GOODS OR SERVICES; LOSS OF USE, DATA OR PROFITS; OR BUSINESS
    52                           ; INTERRUPTION) HOWSOEVER CAUSED AND ON ANY THEORY OF LIABILITY, WHETHER IN CONTRACT, ST
      +                          RICT
    53                           ; LIABILITY, OR TORT (INCLUDING NEGLIGENCE OR OTHERWISE) ARISING IN ANY WAY OUT OF THE U
      +                          SE OF
    54                           ; THIS SOFTWARE, EVEN IF ADVISED OF THE POSSIBILITY OF SUCH DAMAGE.
    55                           ; 
    56                           ; 
    57                           ; Code-generator required, PIC18F2331 Definitions
    58                           ; 
    59                           ; SFR Addresses
    60  0000                     
    61 ;; Function _stateMainMenu is unused but had its address taken
    62  0000                     
    63 ;; Function _statePower1 is unused but had its address taken
    64  0000                     
    65 ;; Function _statePower2 is unused but had its address taken
    66  0000                     
    67 ;; Function _stateRmsVI is unused but had its address taken
    68  0000                     
    69 ;; Function _statePowerFactor is unused but had its address taken
    70  0000                     
    71 ;; Function _statePhaseAngle is unused but had its address taken
    72  0000                     
    73 ;; Function _stateFrequency is unused but had its address taken
    74  0000                     
    75 ;; Function _stateTemperature is unused but had its address taken
    76  0000                     
    77 ;; Function _initialLoad is unused but had its address taken
    78  0000                     
    79 ;; Function _generalView is unused but had its address taken
    80  0000                     
    81 ;; Function _viewMenu is unused but had its address taken
    82  0000                     
    83 ;; Function _sendData is unused but had its address taken
    84  0000                     
    85 ;; Function _typesPower1 is unused but had its address taken
    86  0000                     
    87 ;; Function _phPower1 is unused but had its address taken
    88  0000                     
    89 ;; Function _vectorPower1 is unused but had its address taken
    90  0000                     
    91 ;; Function _exitPower1 is unused but had its address taken
    92  0000                     
    93 ;; Function _fhPower2 is unused but had its address taken
    94  0000                     
    95 ;; Function _phPower2 is unused but had its address taken
    96  0000                     
    97 ;; Function _exitPower2 is unused but had its address taken
    98  0000                     
    99 ;; Function _phRmsVI is unused but had its address taken
   100  0000                     
   101 ;; Function _neutralRmsVI is unused but had its address taken
   102  0000                     
   103 ;; Function _exitRmsVI is unused but had its address taken
   104  0000                     
   105 ;; Function _phPowerFactor is unused but had its address taken
   106  0000                     
   107 ;; Function _exitPowerFactor is unused but had its address taken
   108  0000                     
   109 ;; Function _phPhaseAngle is unused but had its address taken
   110  0000                     
   111 ;; Function _viPhaseAngle is unused but had its address taken
   112  0000                     
   113 ;; Function _exitPhaseAngle is unused but had its address taken
   114  0000                     
   115 ;; Function _showFrequency is unused but had its address taken
   116  0000                     
   117 ;; Function _exitFrequency is unused but had its address taken
   118  0000                     
   119 ;; Function _showTemperature is unused but had its address taken
   120  0000                     
   121 ;; Function _exitTemperature is unused but had its address taken
   122  0000                     
   123                           	psect	idataBANK0
   124  0003EC                     __pidataBANK0:
   125                           	opt stack 0
   126                           
   127                           ;initializer for main@F3294
   128  0003EC  48                 	db	72
   129  0003ED  6F                 	db	111
   130  0003EE  6C                 	db	108
   131  0003EF  61                 	db	97
   132  0003F0  20                 	db	32
   133  0003F1  4D                 	db	77
   134  0003F2  75                 	db	117
   135  0003F3  6E                 	db	110
   136  0003F4  64                 	db	100
   137  0003F5  6F                 	db	111
   138  0003F6  00                 	db	0
   139                           
   140                           	psect	mediumconst
   141  001AB6                     __pmediumconst:
   142                           	opt stack 0
   143  001AB6  00                 	db	0
   144  001AB7                     _ASCII:
   145                           	opt stack 0
   146  001AB7  00                 	db	0
   147  001AB8  00                 	db	0
   148  001AB9  00                 	db	0
   149  001ABA  00                 	db	0
   150  001ABB  00                 	db	0
   151  001ABC  00                 	db	0
   152  001ABD  00                 	db	0
   153  001ABE  5F                 	db	95
   154  001ABF  00                 	db	0
   155  001AC0  00                 	db	0
   156  001AC1  00                 	db	0
   157  001AC2  07                 	db	7
   158  001AC3  00                 	db	0
   159  001AC4  07                 	db	7
   160  001AC5  00                 	db	0
   161  001AC6  14                 	db	20
   162  001AC7  7F                 	db	127
   163  001AC8  14                 	db	20
   164  001AC9  7F                 	db	127
   165  001ACA  14                 	db	20
   166  001ACB  24                 	db	36
   167  001ACC  2A                 	db	42
   168  001ACD  7F                 	db	127
   169  001ACE  2A                 	db	42
   170  001ACF  12                 	db	18
   171  001AD0  23                 	db	35
   172  001AD1  13                 	db	19
   173  001AD2  08                 	db	8
   174  001AD3  64                 	db	100
   175  001AD4  62                 	db	98
   176  001AD5  36                 	db	54
   177  001AD6  49                 	db	73
   178  001AD7  55                 	db	85
   179  001AD8  22                 	db	34
   180  001AD9  50                 	db	80
   181  001ADA  00                 	db	0
   182  001ADB  05                 	db	5
   183  001ADC  03                 	db	3
   184  001ADD  00                 	db	0
   185  001ADE  00                 	db	0
   186  001ADF  00                 	db	0
   187  001AE0  1C                 	db	28
   188  001AE1  22                 	db	34
   189  001AE2  41                 	db	65
   190  001AE3  00                 	db	0
   191  001AE4  00                 	db	0
   192  001AE5  41                 	db	65
   193  001AE6  22                 	db	34
   194  001AE7  1C                 	db	28
   195  001AE8  00                 	db	0
   196  001AE9  14                 	db	20
   197  001AEA  08                 	db	8
   198  001AEB  3E                 	db	62
   199  001AEC  08                 	db	8
   200  001AED  14                 	db	20
   201  001AEE  08                 	db	8
   202  001AEF  08                 	db	8
   203  001AF0  3E                 	db	62
   204  001AF1  08                 	db	8
   205  001AF2  08                 	db	8
   206  001AF3  00                 	db	0
   207  001AF4  50                 	db	80
   208  001AF5  30                 	db	48
   209  001AF6  00                 	db	0
   210  001AF7  00                 	db	0
   211  001AF8  08                 	db	8
   212  001AF9  08                 	db	8
   213  001AFA  08                 	db	8
   214  001AFB  08                 	db	8
   215  001AFC  08                 	db	8
   216  001AFD  00                 	db	0
   217  001AFE  60                 	db	96
   218  001AFF  60                 	db	96
   219  001B00  00                 	db	0
   220  001B01  00                 	db	0
   221  001B02  20                 	db	32
   222  001B03  10                 	db	16
   223  001B04  08                 	db	8
   224  001B05  04                 	db	4
   225  001B06  02                 	db	2
   226  001B07  3E                 	db	62
   227  001B08  51                 	db	81
   228  001B09  49                 	db	73
   229  001B0A  45                 	db	69
   230  001B0B  3E                 	db	62
   231  001B0C  00                 	db	0
   232  001B0D  42                 	db	66
   233  001B0E  7F                 	db	127
   234  001B0F  40                 	db	64
   235  001B10  00                 	db	0
   236  001B11  42                 	db	66
   237  001B12  61                 	db	97
   238  001B13  51                 	db	81
   239  001B14  49                 	db	73
   240  001B15  46                 	db	70
   241  001B16  21                 	db	33
   242  001B17  41                 	db	65
   243  001B18  45                 	db	69
   244  001B19  4B                 	db	75
   245  001B1A  31                 	db	49
   246  001B1B  18                 	db	24
   247  001B1C  14                 	db	20
   248  001B1D  12                 	db	18
   249  001B1E  7F                 	db	127
   250  001B1F  10                 	db	16
   251  001B20  27                 	db	39
   252  001B21  45                 	db	69
   253  001B22  45                 	db	69
   254  001B23  45                 	db	69
   255  001B24  39                 	db	57
   256  001B25  3C                 	db	60
   257  001B26  4A                 	db	74
   258  001B27  49                 	db	73
   259  001B28  49                 	db	73
   260  001B29  30                 	db	48
   261  001B2A  01                 	db	1
   262  001B2B  71                 	db	113
   263  001B2C  09                 	db	9
   264  001B2D  05                 	db	5
   265  001B2E  03                 	db	3
   266  001B2F  36                 	db	54
   267  001B30  49                 	db	73
   268  001B31  49                 	db	73
   269  001B32  49                 	db	73
   270  001B33  36                 	db	54
   271  001B34  06                 	db	6
   272  001B35  49                 	db	73
   273  001B36  49                 	db	73
   274  001B37  29                 	db	41
   275  001B38  1E                 	db	30
   276  001B39  00                 	db	0
   277  001B3A  36                 	db	54
   278  001B3B  36                 	db	54
   279  001B3C  00                 	db	0
   280  001B3D  00                 	db	0
   281  001B3E  00                 	db	0
   282  001B3F  56                 	db	86
   283  001B40  36                 	db	54
   284  001B41  00                 	db	0
   285  001B42  00                 	db	0
   286  001B43  08                 	db	8
   287  001B44  14                 	db	20
   288  001B45  22                 	db	34
   289  001B46  41                 	db	65
   290  001B47  00                 	db	0
   291  001B48  14                 	db	20
   292  001B49  14                 	db	20
   293  001B4A  14                 	db	20
   294  001B4B  14                 	db	20
   295  001B4C  14                 	db	20
   296  001B4D  00                 	db	0
   297  001B4E  41                 	db	65
   298  001B4F  22                 	db	34
   299  001B50  14                 	db	20
   300  001B51  08                 	db	8
   301  001B52  02                 	db	2
   302  001B53  01                 	db	1
   303  001B54  51                 	db	81
   304  001B55  09                 	db	9
   305  001B56  06                 	db	6
   306  001B57  32                 	db	50
   307  001B58  49                 	db	73
   308  001B59  79                 	db	121
   309  001B5A  41                 	db	65
   310  001B5B  3E                 	db	62
   311  001B5C  7E                 	db	126
   312  001B5D  11                 	db	17
   313  001B5E  11                 	db	17
   314  001B5F  11                 	db	17
   315  001B60  7E                 	db	126
   316  001B61  7F                 	db	127
   317  001B62  49                 	db	73
   318  001B63  49                 	db	73
   319  001B64  49                 	db	73
   320  001B65  36                 	db	54
   321  001B66  3E                 	db	62
   322  001B67  41                 	db	65
   323  001B68  41                 	db	65
   324  001B69  41                 	db	65
   325  001B6A  22                 	db	34
   326  001B6B  7F                 	db	127
   327  001B6C  41                 	db	65
   328  001B6D  41                 	db	65
   329  001B6E  22                 	db	34
   330  001B6F  1C                 	db	28
   331  001B70  7F                 	db	127
   332  001B71  49                 	db	73
   333  001B72  49                 	db	73
   334  001B73  49                 	db	73
   335  001B74  41                 	db	65
   336  001B75  7F                 	db	127
   337  001B76  09                 	db	9
   338  001B77  09                 	db	9
   339  001B78  09                 	db	9
   340  001B79  01                 	db	1
   341  001B7A  3E                 	db	62
   342  001B7B  41                 	db	65
   343  001B7C  49                 	db	73
   344  001B7D  49                 	db	73
   345  001B7E  7A                 	db	122
   346  001B7F  7F                 	db	127
   347  001B80  08                 	db	8
   348  001B81  08                 	db	8
   349  001B82  08                 	db	8
   350  001B83  7F                 	db	127
   351  001B84  00                 	db	0
   352  001B85  41                 	db	65
   353  001B86  7F                 	db	127
   354  001B87  41                 	db	65
   355  001B88  00                 	db	0
   356  001B89  20                 	db	32
   357  001B8A  40                 	db	64
   358  001B8B  41                 	db	65
   359  001B8C  3F                 	db	63
   360  001B8D  01                 	db	1
   361  001B8E  7F                 	db	127
   362  001B8F  08                 	db	8
   363  001B90  14                 	db	20
   364  001B91  22                 	db	34
   365  001B92  41                 	db	65
   366  001B93  7F                 	db	127
   367  001B94  40                 	db	64
   368  001B95  40                 	db	64
   369  001B96  40                 	db	64
   370  001B97  40                 	db	64
   371  001B98  7F                 	db	127
   372  001B99  02                 	db	2
   373  001B9A  0C                 	db	12
   374  001B9B  02                 	db	2
   375  001B9C  7F                 	db	127
   376  001B9D  7F                 	db	127
   377  001B9E  04                 	db	4
   378  001B9F  08                 	db	8
   379  001BA0  10                 	db	16
   380  001BA1  7F                 	db	127
   381  001BA2  3E                 	db	62
   382  001BA3  41                 	db	65
   383  001BA4  41                 	db	65
   384  001BA5  41                 	db	65
   385  001BA6  3E                 	db	62
   386  001BA7  7F                 	db	127
   387  001BA8  09                 	db	9
   388  001BA9  09                 	db	9
   389  001BAA  09                 	db	9
   390  001BAB  06                 	db	6
   391  001BAC  3E                 	db	62
   392  001BAD  41                 	db	65
   393  001BAE  51                 	db	81
   394  001BAF  21                 	db	33
   395  001BB0  5E                 	db	94
   396  001BB1  7F                 	db	127
   397  001BB2  09                 	db	9
   398  001BB3  19                 	db	25
   399  001BB4  29                 	db	41
   400  001BB5  46                 	db	70
   401  001BB6  46                 	db	70
   402  001BB7  49                 	db	73
   403  001BB8  49                 	db	73
   404  001BB9  49                 	db	73
   405  001BBA  31                 	db	49
   406  001BBB  01                 	db	1
   407  001BBC  01                 	db	1
   408  001BBD  7F                 	db	127
   409  001BBE  01                 	db	1
   410  001BBF  01                 	db	1
   411  001BC0  3F                 	db	63
   412  001BC1  40                 	db	64
   413  001BC2  40                 	db	64
   414  001BC3  40                 	db	64
   415  001BC4  3F                 	db	63
   416  001BC5  1F                 	db	31
   417  001BC6  20                 	db	32
   418  001BC7  40                 	db	64
   419  001BC8  20                 	db	32
   420  001BC9  1F                 	db	31
   421  001BCA  3F                 	db	63
   422  001BCB  40                 	db	64
   423  001BCC  38                 	db	56
   424  001BCD  40                 	db	64
   425  001BCE  3F                 	db	63
   426  001BCF  63                 	db	99
   427  001BD0  14                 	db	20
   428  001BD1  08                 	db	8
   429  001BD2  14                 	db	20
   430  001BD3  63                 	db	99
   431  001BD4  07                 	db	7
   432  001BD5  08                 	db	8
   433  001BD6  70                 	db	112
   434  001BD7  08                 	db	8
   435  001BD8  07                 	db	7
   436  001BD9  61                 	db	97
   437  001BDA  51                 	db	81
   438  001BDB  49                 	db	73
   439  001BDC  45                 	db	69
   440  001BDD  43                 	db	67
   441  001BDE  00                 	db	0
   442  001BDF  7F                 	db	127
   443  001BE0  41                 	db	65
   444  001BE1  41                 	db	65
   445  001BE2  00                 	db	0
   446  001BE3  02                 	db	2
   447  001BE4  04                 	db	4
   448  001BE5  08                 	db	8
   449  001BE6  10                 	db	16
   450  001BE7  20                 	db	32
   451  001BE8  00                 	db	0
   452  001BE9  41                 	db	65
   453  001BEA  41                 	db	65
   454  001BEB  7F                 	db	127
   455  001BEC  00                 	db	0
   456  001BED  04                 	db	4
   457  001BEE  02                 	db	2
   458  001BEF  01                 	db	1
   459  001BF0  02                 	db	2
   460  001BF1  04                 	db	4
   461  001BF2  40                 	db	64
   462  001BF3  40                 	db	64
   463  001BF4  40                 	db	64
   464  001BF5  40                 	db	64
   465  001BF6  40                 	db	64
   466  001BF7  00                 	db	0
   467  001BF8  01                 	db	1
   468  001BF9  02                 	db	2
   469  001BFA  04                 	db	4
   470  001BFB  00                 	db	0
   471  001BFC  20                 	db	32
   472  001BFD  54                 	db	84
   473  001BFE  54                 	db	84
   474  001BFF  54                 	db	84
   475  001C00  78                 	db	120
   476  001C01  7F                 	db	127
   477  001C02  48                 	db	72
   478  001C03  44                 	db	68
   479  001C04  44                 	db	68
   480  001C05  38                 	db	56
   481  001C06  38                 	db	56
   482  001C07  44                 	db	68
   483  001C08  44                 	db	68
   484  001C09  44                 	db	68
   485  001C0A  20                 	db	32
   486  001C0B  38                 	db	56
   487  001C0C  44                 	db	68
   488  001C0D  44                 	db	68
   489  001C0E  48                 	db	72
   490  001C0F  7F                 	db	127
   491  001C10  38                 	db	56
   492  001C11  54                 	db	84
   493  001C12  54                 	db	84
   494  001C13  54                 	db	84
   495  001C14  18                 	db	24
   496  001C15  08                 	db	8
   497  001C16  7E                 	db	126
   498  001C17  09                 	db	9
   499  001C18  01                 	db	1
   500  001C19  02                 	db	2
   501  001C1A  0C                 	db	12
   502  001C1B  52                 	db	82
   503  001C1C  52                 	db	82
   504  001C1D  52                 	db	82
   505  001C1E  3E                 	db	62
   506  001C1F  7F                 	db	127
   507  001C20  08                 	db	8
   508  001C21  04                 	db	4
   509  001C22  04                 	db	4
   510  001C23  78                 	db	120
   511  001C24  00                 	db	0
   512  001C25  44                 	db	68
   513  001C26  7D                 	db	125
   514  001C27  40                 	db	64
   515  001C28  00                 	db	0
   516  001C29  20                 	db	32
   517  001C2A  40                 	db	64
   518  001C2B  44                 	db	68
   519  001C2C  3D                 	db	61
   520  001C2D  00                 	db	0
   521  001C2E  7F                 	db	127
   522  001C2F  10                 	db	16
   523  001C30  28                 	db	40
   524  001C31  44                 	db	68
   525  001C32  00                 	db	0
   526  001C33  00                 	db	0
   527  001C34  41                 	db	65
   528  001C35  7F                 	db	127
   529  001C36  40                 	db	64
   530  001C37  00                 	db	0
   531  001C38  7C                 	db	124
   532  001C39  04                 	db	4
   533  001C3A  18                 	db	24
   534  001C3B  04                 	db	4
   535  001C3C  78                 	db	120
   536  001C3D  7C                 	db	124
   537  001C3E  08                 	db	8
   538  001C3F  04                 	db	4
   539  001C40  04                 	db	4
   540  001C41  78                 	db	120
   541  001C42  38                 	db	56
   542  001C43  44                 	db	68
   543  001C44  44                 	db	68
   544  001C45  44                 	db	68
   545  001C46  38                 	db	56
   546  001C47  7C                 	db	124
   547  001C48  14                 	db	20
   548  001C49  14                 	db	20
   549  001C4A  14                 	db	20
   550  001C4B  08                 	db	8
   551  001C4C  08                 	db	8
   552  001C4D  14                 	db	20
   553  001C4E  14                 	db	20
   554  001C4F  18                 	db	24
   555  001C50  7C                 	db	124
   556  001C51  7C                 	db	124
   557  001C52  08                 	db	8
   558  001C53  04                 	db	4
   559  001C54  04                 	db	4
   560  001C55  08                 	db	8
   561  001C56  48                 	db	72
   562  001C57  54                 	db	84
   563  001C58  54                 	db	84
   564  001C59  54                 	db	84
   565  001C5A  20                 	db	32
   566  001C5B  04                 	db	4
   567  001C5C  3F                 	db	63
   568  001C5D  44                 	db	68
   569  001C5E  40                 	db	64
   570  001C5F  20                 	db	32
   571  001C60  3C                 	db	60
   572  001C61  40                 	db	64
   573  001C62  40                 	db	64
   574  001C63  20                 	db	32
   575  001C64  7C                 	db	124
   576  001C65  1C                 	db	28
   577  001C66  20                 	db	32
   578  001C67  40                 	db	64
   579  001C68  20                 	db	32
   580  001C69  1C                 	db	28
   581  001C6A  3C                 	db	60
   582  001C6B  40                 	db	64
   583  001C6C  30                 	db	48
   584  001C6D  40                 	db	64
   585  001C6E  3C                 	db	60
   586  001C6F  44                 	db	68
   587  001C70  28                 	db	40
   588  001C71  10                 	db	16
   589  001C72  28                 	db	40
   590  001C73  44                 	db	68
   591  001C74  0C                 	db	12
   592  001C75  50                 	db	80
   593  001C76  50                 	db	80
   594  001C77  50                 	db	80
   595  001C78  3C                 	db	60
   596  001C79  44                 	db	68
   597  001C7A  64                 	db	100
   598  001C7B  54                 	db	84
   599  001C7C  4C                 	db	76
   600  001C7D  44                 	db	68
   601  001C7E  00                 	db	0
   602  001C7F  08                 	db	8
   603  001C80  36                 	db	54
   604  001C81  41                 	db	65
   605  001C82  00                 	db	0
   606  001C83  00                 	db	0
   607  001C84  00                 	db	0
   608  001C85  7F                 	db	127
   609  001C86  00                 	db	0
   610  001C87  00                 	db	0
   611  001C88  00                 	db	0
   612  001C89  41                 	db	65
   613  001C8A  36                 	db	54
   614  001C8B  08                 	db	8
   615  001C8C  00                 	db	0
   616  001C8D  10                 	db	16
   617  001C8E  08                 	db	8
   618  001C8F  08                 	db	8
   619  001C90  10                 	db	16
   620  001C91  08                 	db	8
   621  001C92  78                 	db	120
   622  001C93  46                 	db	70
   623  001C94  41                 	db	65
   624  001C95  46                 	db	70
   625  001C96  78                 	db	120
   626  001C97                     __end_of_ASCII:
   627                           	opt stack 0
   628  001C97                     _StateProgram:
   629                           	opt stack 0
   630  001C97  00                 	db	0
   631  001C98  00                 	db	0
   632  001C99  00                 	db	0
   633  001C9A  00                 	db	0
   634  001C9B  00                 	db	0
   635  001C9C  00                 	db	0
   636  001C9D  00                 	db	0
   637  001C9E  00                 	db	0
   638  001C9F  00                 	db	0
   639  001CA0  00                 	db	0
   640  001CA1  00                 	db	0
   641  001CA2  00                 	db	0
   642  001CA3  00                 	db	0
   643  001CA4  00                 	db	0
   644  001CA5  00                 	db	0
   645  001CA6  00                 	db	0
   646  001CA7                     __end_of_StateProgram:
   647                           	opt stack 0
   648  001CA7                     generalView@F3409:
   649                           	opt stack 0
   650  001CA7  4D                 	db	77
   651  001CA8  45                 	db	69
   652  001CA9  44                 	db	68
   653  001CAA  49                 	db	73
   654  001CAB  43                 	db	67
   655  001CAC  49                 	db	73
   656  001CAD  4F                 	db	79
   657  001CAE  4E                 	db	78
   658  001CAF  20                 	db	32
   659  001CB0  44                 	db	68
   660  001CB1  45                 	db	69
   661  001CB2  00                 	db	0
   662  001CB3                     __end_ofgeneralView@F3409:
   663                           	opt stack 0
   664  001CB3                     generalView@F3411:
   665                           	opt stack 0
   666  001CB3  54                 	db	84
   667  001CB4  52                 	db	82
   668  001CB5  49                 	db	73
   669  001CB6  46                 	db	70
   670  001CB7  41                 	db	65
   671  001CB8  53                 	db	83
   672  001CB9  49                 	db	73
   673  001CBA  43                 	db	67
   674  001CBB  4F                 	db	79
   675  001CBC  00                 	db	0
   676  001CBD                     __end_ofgeneralView@F3411:
   677                           	opt stack 0
   678  001CBD                     _phasesPower1:
   679                           	opt stack 0
   680  001CBD  00                 	db	0
   681  001CBE  00                 	db	0
   682  001CBF  00                 	db	0
   683  001CC0  00                 	db	0
   684  001CC1  00                 	db	0
   685  001CC2  00                 	db	0
   686  001CC3  00                 	db	0
   687  001CC4  00                 	db	0
   688  001CC5                     __end_of_phasesPower1:
   689                           	opt stack 0
   690  001CC5                     _phasesMainMenu:
   691                           	opt stack 0
   692  001CC5  00                 	db	0
   693  001CC6  00                 	db	0
   694  001CC7  00                 	db	0
   695  001CC8  00                 	db	0
   696  001CC9  00                 	db	0
   697  001CCA  00                 	db	0
   698  001CCB  00                 	db	0
   699  001CCC  00                 	db	0
   700  001CCD                     __end_of_phasesMainMenu:
   701                           	opt stack 0
   702  001CCD                     generalView@F3413:
   703                           	opt stack 0
   704  001CCD  45                 	db	69
   705  001CCE  6E                 	db	110
   706  001CCF  76                 	db	118
   707  001CD0  69                 	db	105
   708  001CD1  61                 	db	97
   709  001CD2  72                 	db	114
   710  001CD3  00                 	db	0
   711  001CD4                     __end_ofgeneralView@F3413:
   712                           	opt stack 0
   713  001CD4                     _phasesPhaseAngle:
   714                           	opt stack 0
   715  001CD4  00                 	db	0
   716  001CD5  00                 	db	0
   717  001CD6  00                 	db	0
   718  001CD7  00                 	db	0
   719  001CD8  00                 	db	0
   720  001CD9  00                 	db	0
   721  001CDA                     __end_of_phasesPhaseAngle:
   722                           	opt stack 0
   723  001CDA                     _phasesRmsVI:
   724                           	opt stack 0
   725  001CDA  00                 	db	0
   726  001CDB  00                 	db	0
   727  001CDC  00                 	db	0
   728  001CDD  00                 	db	0
   729  001CDE  00                 	db	0
   730  001CDF  00                 	db	0
   731  001CE0                     __end_of_phasesRmsVI:
   732                           	opt stack 0
   733  001CE0                     _phasesPower2:
   734                           	opt stack 0
   735  001CE0  00                 	db	0
   736  001CE1  00                 	db	0
   737  001CE2  00                 	db	0
   738  001CE3  00                 	db	0
   739  001CE4  00                 	db	0
   740  001CE5  00                 	db	0
   741  001CE6                     __end_of_phasesPower2:
   742                           	opt stack 0
   743  001CE6                     sendData@F3422:
   744                           	opt stack 0
   745  001CE6  54                 	db	84
   746  001CE7  45                 	db	69
   747  001CE8  53                 	db	83
   748  001CE9  54                 	db	84
   749  001CEA  00                 	db	0
   750  001CEB                     __end_ofsendData@F3422:
   751                           	opt stack 0
   752  001CEB                     generalView@F3415:
   753                           	opt stack 0
   754  001CEB  4D                 	db	77
   755  001CEC  65                 	db	101
   756  001CED  6E                 	db	110
   757  001CEE  75                 	db	117
   758  001CEF  00                 	db	0
   759  001CF0                     __end_ofgeneralView@F3415:
   760                           	opt stack 0
   761  001CF0                     _phasesTemperature:
   762                           	opt stack 0
   763  001CF0  00                 	db	0
   764  001CF1  00                 	db	0
   765  001CF2  00                 	db	0
   766  001CF3  00                 	db	0
   767  001CF4                     __end_of_phasesTemperature:
   768                           	opt stack 0
   769  001CF4                     _phasesFrequency:
   770                           	opt stack 0
   771  001CF4  00                 	db	0
   772  001CF5  00                 	db	0
   773  001CF6  00                 	db	0
   774  001CF7  00                 	db	0
   775  001CF8                     __end_of_phasesFrequency:
   776                           	opt stack 0
   777  001CF8                     _phasesPowerFactor:
   778                           	opt stack 0
   779  001CF8  00                 	db	0
   780  001CF9  00                 	db	0
   781  001CFA  00                 	db	0
   782  001CFB  00                 	db	0
   783  001CFC                     __end_of_phasesPowerFactor:
   784                           	opt stack 0
   785  001CFC                     _SPI_Config:
   786                           	opt stack 0
   787  001CFC  00                 	db	0
   788  001CFD  00                 	db	0
   789  001CFE  00                 	db	0
   790  001CFF                     __end_of_SPI_Config:
   791                           	opt stack 0
   792  0000                     _PORTAbits	set	3968
   793  0000                     _TRISCbits	set	3988
   794  0000                     _PORTC	set	3970
   795  0000                     _PORTB	set	3969
   796  0000                     _PORTA	set	3968
   797  0000                     _TRISC	set	3988
   798  0000                     _TRISB	set	3987
   799  0000                     _TRISA	set	3986
   800  0000                     _ANSEL0bits	set	4024
   801  0000                     _TXREG	set	4013
   802  0000                     _BAUDCTLbits	set	4010
   803  0000                     _RCSTAbits	set	4011
   804  0000                     _TXSTAbits	set	4012
   805  0000                     _SPBRG	set	4015
   806  0000                     _SSPBUF	set	4041
   807  0000                     _PIR1bits	set	3998
   808  0000                     _SSPCON	set	4038
   809  0000                     _SSPCONbits	set	4038
   810  0000                     _SSPSTATbits	set	4039
   811  0000                     _SSPSTAT	set	4039
   812  0000                     _ANSEL0	set	4024
   813  0000                     _OSCCON	set	4051
   814  0000                     _INTCON2bits	set	4081
   815  0000                     _INTCONbits	set	4082
   816  0000                     _INT0IF	set	32657
   817                           
   818                           ; #config settings
   819  001CFF  00                 	db	0	; dummy byte at the end
   820  0000                     
   821                           	psect	cinit
   822  000358                     __pcinit:
   823                           	opt stack 0
   824  000358                     start_initialization:
   825                           	opt stack 0
   826  000358                     __initialization:
   827                           	opt stack 0
   828                           
   829                           ; Initialize objects allocated to BANK0 (11 bytes)
   830                           ; load TBLPTR registers with __pidataBANK0
   831  000358  0EEC               	movlw	low __pidataBANK0
   832  00035A  6EF6               	movwf	tblptrl,c
   833  00035C  0E03               	movlw	high __pidataBANK0
   834  00035E  6EF7               	movwf	tblptrh,c
   835  000360  0E00               	movlw	low (__pidataBANK0 shr (0+16))
   836  000362  6EF8               	movwf	tblptru,c
   837  000364  EE00  F09B         	lfsr	0,__pdataBANK0
   838  000368  EE10 F00B          	lfsr	1,11
   839  00036C                     copy_data0:
   840  00036C  0009               	tblrd		*+
   841  00036E  CFF5 FFEE          	movff	tablat,postinc0
   842  000372  50E5               	movf	postdec1,w,c
   843  000374  50E1               	movf	fsr1l,w,c
   844  000376  E1FA               	bnz	copy_data0
   845                           
   846                           ; Clear objects allocated to BANK0 (42 bytes)
   847  000378  EE00  F060         	lfsr	0,__pbssBANK0
   848  00037C  0E2A               	movlw	42
   849  00037E                     clear_0:
   850  00037E  6AEE               	clrf	postinc0,c
   851  000380  06E8               	decf	wreg,f,c
   852  000382  E1FD               	bnz	clear_0
   853                           
   854                           ; Clear objects allocated to COMRAM (59 bytes)
   855  000384  EE00  F001         	lfsr	0,__pbssCOMRAM
   856  000388  0E3B               	movlw	59
   857  00038A                     clear_1:
   858  00038A  6AEE               	clrf	postinc0,c
   859  00038C  06E8               	decf	wreg,f,c
   860  00038E  E1FD               	bnz	clear_1
   861  000390                     end_of_initialization:
   862                           	opt stack 0
   863  000390                     __end_of__initialization:
   864                           	opt stack 0
   865  000390  904E               	bcf	int$flags,0,c	;clear compiler interrupt flag (level 1)
   866  000392  924E               	bcf	int$flags,1,c	;clear compiler interrupt flag (level 2)
   867  000394  0E00               	movlw	low (__Lmediumconst shr (0+16))
   868  000396  6EF8               	movwf	tblptru,c
   869  000398  0100               	movlb	0
   870  00039A  EF45  F001         	goto	_main	;jump to C main() function
   871                           tblptru	equ	0xFF8
   872                           tblptrh	equ	0xFF7
   873                           tblptrl	equ	0xFF6
   874                           tablat	equ	0xFF5
   875                           postinc0	equ	0xFEE
   876                           wreg	equ	0xFE8
   877                           postdec1	equ	0xFE5
   878                           fsr1l	equ	0xFE1
   879                           
   880                           	psect	bssCOMRAM
   881  000001                     __pbssCOMRAM:
   882                           	opt stack 0
   883  000001                     expBASE10@value:
   884                           	opt stack 0
   885  000001                     	ds	4
   886  000005                     vectorPower1@currentPower1_3:
   887                           	opt stack 0
   888  000005                     	ds	3
   889  000008                     phPower1@currentPower1_2:
   890                           	opt stack 0
   891  000008                     	ds	3
   892  00000B                     typesPower1@currentPower1_1:
   893                           	opt stack 0
   894  00000B                     	ds	3
   895  00000E                     stateTemperature@phaseTemperature:
   896                           	opt stack 0
   897  00000E                     	ds	3
   898  000011                     stateFrequency@phaseFrequency:
   899                           	opt stack 0
   900  000011                     	ds	3
   901  000014                     statePhaseAngle@phasePhaseAngle:
   902                           	opt stack 0
   903  000014                     	ds	3
   904  000017                     stateRmsVI@phaseRmsVI:
   905                           	opt stack 0
   906  000017                     	ds	3
   907  00001A                     statePower2@phasePower2:
   908                           	opt stack 0
   909  00001A                     	ds	3
   910  00001D                     statePower1@phasePower1:
   911                           	opt stack 0
   912  00001D                     	ds	3
   913  000020                     exitPowerFactor@currentPowerFactor2:
   914                           	opt stack 0
   915  000020                     	ds	2
   916  000022                     phPowerFactor@currentPowerFactor1:
   917                           	opt stack 0
   918  000022                     	ds	2
   919  000024                     sendData@currentMainMenu4:
   920                           	opt stack 0
   921  000024                     	ds	2
   922  000026                     viewMenu@currentMainMenu3:
   923                           	opt stack 0
   924  000026                     	ds	2
   925  000028                     generalView@currentMainMenu2:
   926                           	opt stack 0
   927  000028                     	ds	2
   928  00002A                     initialLoad@currentMainMenu1:
   929                           	opt stack 0
   930  00002A                     	ds	2
   931  00002C                     statePowerFactor@phasePowerFactor:
   932                           	opt stack 0
   933  00002C                     	ds	2
   934  00002E                     stateMainMenu@phaseMain:
   935                           	opt stack 0
   936  00002E                     	ds	2
   937  000030                     _FlagButton3:
   938                           	opt stack 0
   939  000030                     	ds	1
   940  000031                     _FlagButton2:
   941                           	opt stack 0
   942  000031                     	ds	1
   943  000032                     _FlagButton1:
   944                           	opt stack 0
   945  000032                     	ds	1
   946  000033                     generalView@lockClear:
   947                           	opt stack 0
   948  000033                     	ds	1
   949  000034                     stateTemperature@phase:
   950                           	opt stack 0
   951  000034                     	ds	1
   952  000035                     stateFrequency@phase:
   953                           	opt stack 0
   954  000035                     	ds	1
   955  000036                     statePhaseAngle@phase:
   956                           	opt stack 0
   957  000036                     	ds	1
   958  000037                     statePowerFactor@phase:
   959                           	opt stack 0
   960  000037                     	ds	1
   961  000038                     stateRmsVI@phase:
   962                           	opt stack 0
   963  000038                     	ds	1
   964  000039                     statePower2@phase:
   965                           	opt stack 0
   966  000039                     	ds	1
   967  00003A                     statePower1@phase:
   968                           	opt stack 0
   969  00003A                     	ds	1
   970  00003B                     stateMainMenu@phase:
   971                           	opt stack 0
   972  00003B                     	ds	1
   973                           tblptru	equ	0xFF8
   974                           tblptrh	equ	0xFF7
   975                           tblptrl	equ	0xFF6
   976                           tablat	equ	0xFF5
   977                           postinc0	equ	0xFEE
   978                           wreg	equ	0xFE8
   979                           postdec1	equ	0xFE5
   980                           fsr1l	equ	0xFE1
   981                           
   982                           	psect	bssBANK0
   983  000060                     __pbssBANK0:
   984                           	opt stack 0
   985  000060                     exitTemperature@currentTemperature2:
   986                           	opt stack 0
   987  000060                     	ds	3
   988  000063                     showTemperature@currentTemperature1:
   989                           	opt stack 0
   990  000063                     	ds	3
   991  000066                     exitFrequency@currentFrequency2:
   992                           	opt stack 0
   993  000066                     	ds	3
   994  000069                     showFrequency@currentFrequency1:
   995                           	opt stack 0
   996  000069                     	ds	3
   997  00006C                     exitPhaseAngle@currentPhaseAngle3:
   998                           	opt stack 0
   999  00006C                     	ds	3
  1000  00006F                     viPhaseAngle@currentPhaseAngle2:
  1001                           	opt stack 0
  1002  00006F                     	ds	3
  1003  000072                     phPhaseAngle@currentPhaseAngle1:
  1004                           	opt stack 0
  1005  000072                     	ds	3
  1006  000075                     exitRmsVI@currentRms3:
  1007                           	opt stack 0
  1008  000075                     	ds	3
  1009  000078                     neutralRmsVI@currentRms2:
  1010                           	opt stack 0
  1011  000078                     	ds	3
  1012  00007B                     phRmsVI@currentRms1:
  1013                           	opt stack 0
  1014  00007B                     	ds	3
  1015  00007E                     exitPower2@currentPower2_3:
  1016                           	opt stack 0
  1017  00007E                     	ds	3
  1018  000081                     phPower2@currentPower2_2:
  1019                           	opt stack 0
  1020  000081                     	ds	3
  1021  000084                     fhPower2@currentPower2_1:
  1022                           	opt stack 0
  1023  000084                     	ds	3
  1024  000087                     exitPower1@currentPower1_4:
  1025                           	opt stack 0
  1026  000087                     	ds	3
  1027                           tblptru	equ	0xFF8
  1028                           tblptrh	equ	0xFF7
  1029                           tblptrl	equ	0xFF6
  1030                           tablat	equ	0xFF5
  1031                           postinc0	equ	0xFEE
  1032                           wreg	equ	0xFE8
  1033                           postdec1	equ	0xFE5
  1034                           fsr1l	equ	0xFE1
  1035                           
  1036                           	psect	dataBANK0
  1037  00009B                     __pdataBANK0:
  1038                           	opt stack 0
  1039  00009B                     main@F3294:
  1040                           	opt stack 0
  1041  00009B                     	ds	11
  1042                           tblptru	equ	0xFF8
  1043                           tblptrh	equ	0xFF7
  1044                           tblptrl	equ	0xFF6
  1045                           tablat	equ	0xFF5
  1046                           postinc0	equ	0xFEE
  1047                           wreg	equ	0xFE8
  1048                           postdec1	equ	0xFE5
  1049                           fsr1l	equ	0xFE1
  1050                           
  1051                           	psect	cstackBANK0
  1052  00008A                     __pcstackBANK0:
  1053                           	opt stack 0
  1054  00008A                     GPIO_sourceClock@clk:
  1055                           	opt stack 0
  1056  00008A                     GPIO_dataDirectionPIN@pin:
  1057                           	opt stack 0
  1058  00008A                     GPIO_setPIN@pin:
  1059                           	opt stack 0
  1060  00008A                     GPIO_clearPIN@pin:
  1061                           	opt stack 0
  1062                           
  1063                           ; 1 bytes @ 0x0
  1064  00008A                     	ds	1
  1065  00008B                     ??_GPIO_clearPIN:
  1066  00008B                     ??_GPIO_setPIN:
  1067  00008B                     GPIO_dataDirectionPIN@state:
  1068                           	opt stack 0
  1069                           
  1070                           ; 1 bytes @ 0x1
  1071  00008B                     	ds	1
  1072  00008C                     ??_GPIO_dataDirectionPIN:
  1073                           
  1074                           ; 1 bytes @ 0x2
  1075  00008C                     	ds	1
  1076  00008D                     GPIO_setPIN@portName:
  1077                           	opt stack 0
  1078  00008D                     GPIO_clearPIN@portName:
  1079                           	opt stack 0
  1080                           
  1081                           ; 1 bytes @ 0x3
  1082  00008D                     	ds	1
  1083  00008E                     GPIO_dataDirectionPIN@portName:
  1084                           	opt stack 0
  1085                           
  1086                           ; 1 bytes @ 0x4
  1087  00008E                     	ds	1
  1088  00008F                     main@arrayTest:
  1089                           	opt stack 0
  1090                           
  1091                           ; 11 bytes @ 0x5
  1092  00008F                     	ds	11
  1093  00009A                     main@test:
  1094                           	opt stack 0
  1095                           
  1096                           ; 1 bytes @ 0x10
  1097  00009A                     	ds	1
  1098                           tblptru	equ	0xFF8
  1099                           tblptrh	equ	0xFF7
  1100                           tblptrl	equ	0xFF6
  1101                           tablat	equ	0xFF5
  1102                           postinc0	equ	0xFEE
  1103                           wreg	equ	0xFE8
  1104                           postdec1	equ	0xFE5
  1105                           fsr1l	equ	0xFE1
  1106                           
  1107                           	psect	cstackCOMRAM
  1108  00003C                     __pcstackCOMRAM:
  1109                           	opt stack 0
  1110  00003C                     ??_Button1:
  1111                           
  1112                           ; 1 bytes @ 0x0
  1113  00003C                     	ds	18
  1114                           tblptru	equ	0xFF8
  1115                           tblptrh	equ	0xFF7
  1116                           tblptrl	equ	0xFF6
  1117                           tablat	equ	0xFF5
  1118                           postinc0	equ	0xFEE
  1119                           wreg	equ	0xFE8
  1120                           postdec1	equ	0xFE5
  1121                           fsr1l	equ	0xFE1
  1122                           
  1123 ;;
  1124 ;;Main: autosize = 0, tempsize = 0, incstack = 0, save=0
  1125 ;;
  1126 ;; *************** function _main *****************
  1127 ;; Defined at:
  1128 ;;		line 88 in file "main.c"
  1129 ;; Parameters:    Size  Location     Type
  1130 ;;		None
  1131 ;; Auto vars:     Size  Location     Type
  1132 ;;  arrayTest      11    5[BANK0 ] unsigned char [11]
  1133 ;;  test            1   16[BANK0 ] unsigned char 
  1134 ;; Return value:  Size  Location     Type
  1135 ;;                  1    wreg      void 
  1136 ;; Registers used:
  1137 ;;		wreg, fsr1l, fsr1h, fsr2l, fsr2h, status,2, status,0, cstack
  1138 ;; Tracked objects:
  1139 ;;		On entry : 0/0
  1140 ;;		On exit  : 0/0
  1141 ;;		Unchanged: 0/0
  1142 ;; Data sizes:     COMRAM   BANK0   BANK1   BANK2
  1143 ;;      Params:         0       0       0       0
  1144 ;;      Locals:         0      12       0       0
  1145 ;;      Temps:          0       0       0       0
  1146 ;;      Totals:         0      12       0       0
  1147 ;;Total ram usage:       12 bytes
  1148 ;; Hardware stack levels required when called:    3
  1149 ;; This function calls:
  1150 ;;		_ButtonInt_config
  1151 ;;		_GPIO_clearPIN
  1152 ;;		_GPIO_dataDirectionPIN
  1153 ;;		_GPIO_setPIN
  1154 ;;		_GPIO_sourceClock
  1155 ;;		_getButton1
  1156 ;;		_getButton2
  1157 ;; This function is called by:
  1158 ;;		Startup code after reset
  1159 ;; This function uses a non-reentrant model
  1160 ;;
  1161                           
  1162                           	psect	text0
  1163  00028A                     __ptext0:
  1164                           	opt stack 0
  1165  00028A                     _main:
  1166                           	opt stack 28
  1167                           
  1168                           ;main.c: 96: GPIO_sourceClock(CLK_8MHZ);
  1169                           
  1170                           ;incstack = 0
  1171  00028A  0E00               	movlw	0
  1172  00028C  EC7A  F001         	call	_GPIO_sourceClock
  1173                           
  1174                           ;main.c: 104: ButtonInt_config();
  1175  000290  ECCF  F001         	call	_ButtonInt_config	;wreg free
  1176                           
  1177                           ;main.c: 105: uint8_t test = 'o';
  1178  000294  0E6F               	movlw	111
  1179  000296  0100               	movlb	0	; () banked
  1180  000298  6F9A               	movwf	main@test& (0+255),b
  1181                           
  1182                           ; BSR set to: 0
  1183                           ;main.c: 106: uint8_t arrayTest[] = "Hola Mundo";
  1184  00029A  EE20  F09B         	lfsr	2,main@F3294
  1185  00029E  EE10  F08F         	lfsr	1,main@arrayTest
  1186  0002A2  0E0A               	movlw	10
  1187  0002A4                     u1311:
  1188  0002A4  CFDB FFE3          	movff	plusw2,plusw1
  1189  0002A8  06E8               	decf	wreg,f,c
  1190  0002AA  E2FC               	bc	u1311
  1191                           
  1192                           ; BSR set to: 0
  1193                           ;main.c: 107: GPIO_dataDirectionPIN(GPIO_B, 0, GPIO_OUTPUT);
  1194  0002AC  0E00               	movlw	0
  1195  0002AE  6F8A               	movwf	GPIO_dataDirectionPIN@pin& (0+255),b
  1196  0002B0  0E01               	movlw	1
  1197  0002B2  6F8B               	movwf	GPIO_dataDirectionPIN@state& (0+255),b
  1198  0002B4  0E01               	movlw	1
  1199  0002B6  EC56  F000         	call	_GPIO_dataDirectionPIN
  1200                           
  1201                           ;main.c: 108: GPIO_clearPIN(GPIO_B,0);
  1202  0002BA  0E00               	movlw	0
  1203  0002BC  0100               	movlb	0	; () banked
  1204  0002BE  6F8A               	movwf	GPIO_clearPIN@pin& (0+255),b
  1205  0002C0  0E01               	movlw	1
  1206  0002C2  ECCE  F000         	call	_GPIO_clearPIN
  1207  0002C6                     
  1208                           ;main.c: 110: {
  1209                           ;main.c: 112: if(getButton1() == 1)
  1210  0002C6  ECFC  F001         	call	_getButton1	;wreg free
  1211  0002CA  06E8               	decf	wreg,f,c
  1212  0002CC  A4D8               	btfss	status,2,c
  1213  0002CE  D006               	goto	l42
  1214                           
  1215                           ;main.c: 113: {
  1216                           ;main.c: 114: GPIO_clearPIN(GPIO_B,0);
  1217  0002D0  0E00               	movlw	0
  1218  0002D2  0100               	movlb	0	; () banked
  1219  0002D4  6F8A               	movwf	GPIO_clearPIN@pin& (0+255),b
  1220  0002D6  0E01               	movlw	1
  1221  0002D8  ECCE  F000         	call	_GPIO_clearPIN
  1222  0002DC                     l42:
  1223                           
  1224                           ;main.c: 115: }
  1225                           ;main.c: 116: if(getButton2() == 1)
  1226  0002DC  ECEE  F001         	call	_getButton2	;wreg free
  1227  0002E0  06E8               	decf	wreg,f,c
  1228  0002E2  A4D8               	btfss	status,2,c
  1229  0002E4  D7F0               	goto	l41
  1230                           
  1231                           ;main.c: 117: {
  1232                           ;main.c: 118: GPIO_setPIN(GPIO_B,0);
  1233  0002E6  0E00               	movlw	0
  1234  0002E8  0100               	movlb	0	; () banked
  1235  0002EA  6F8A               	movwf	GPIO_setPIN@pin& (0+255),b
  1236  0002EC  0E01               	movlw	1
  1237  0002EE  EC0B  F001         	call	_GPIO_setPIN
  1238                           
  1239                           ;main.c: 119: }
  1240                           ;main.c: 128: }
  1241  0002F2  D7E9               	goto	l41
  1242  0002F4                     __end_of_main:
  1243                           	opt stack 0
  1244                           tblptru	equ	0xFF8
  1245                           tblptrh	equ	0xFF7
  1246                           tblptrl	equ	0xFF6
  1247                           tablat	equ	0xFF5
  1248                           postinc0	equ	0xFEE
  1249                           wreg	equ	0xFE8
  1250                           postdec1	equ	0xFE5
  1251                           plusw1	equ	0xFE3
  1252                           fsr1l	equ	0xFE1
  1253                           plusw2	equ	0xFDB
  1254                           status	equ	0xFD8
  1255                           
  1256 ;; *************** function _getButton2 *****************
  1257 ;; Defined at:
  1258 ;;		line 30 in file "Buttons.c"
  1259 ;; Parameters:    Size  Location     Type
  1260 ;;		None
  1261 ;; Auto vars:     Size  Location     Type
  1262 ;;		None
  1263 ;; Return value:  Size  Location     Type
  1264 ;;                  1    wreg      unsigned char 
  1265 ;; Registers used:
  1266 ;;		wreg, status,2
  1267 ;; Tracked objects:
  1268 ;;		On entry : 0/0
  1269 ;;		On exit  : 0/0
  1270 ;;		Unchanged: 0/0
  1271 ;; Data sizes:     COMRAM   BANK0   BANK1   BANK2
  1272 ;;      Params:         0       0       0       0
  1273 ;;      Locals:         0       0       0       0
  1274 ;;      Temps:          0       0       0       0
  1275 ;;      Totals:         0       0       0       0
  1276 ;;Total ram usage:        0 bytes
  1277 ;; Hardware stack levels used:    1
  1278 ;; Hardware stack levels required when called:    1
  1279 ;; This function calls:
  1280 ;;		Nothing
  1281 ;; This function is called by:
  1282 ;;		_main
  1283 ;; This function uses a non-reentrant model
  1284 ;;
  1285                           
  1286                           	psect	text1
  1287  0003DC                     __ptext1:
  1288                           	opt stack 0
  1289  0003DC                     _getButton2:
  1290                           	opt stack 29
  1291                           
  1292                           ;Buttons.c: 32: if(1 == PORTAbits.RA3)
  1293                           
  1294                           ;incstack = 0
  1295  0003DC  A680               	btfss	3968,3,c	;volatile
  1296  0003DE  D002               	goto	l614
  1297                           
  1298                           ;Buttons.c: 33: {
  1299                           ;Buttons.c: 34: FlagButton2 = 1;
  1300  0003E0  0E01               	movlw	1
  1301  0003E2  D001               	goto	L1
  1302  0003E4                     l614:
  1303                           
  1304                           ;Buttons.c: 36: else
  1305                           ;Buttons.c: 37: {
  1306                           ;Buttons.c: 38: FlagButton2 = 0;
  1307  0003E4  0E00               	movlw	0
  1308  0003E6                     L1:
  1309  0003E6  6E31               	movwf	_FlagButton2,c
  1310                           
  1311                           ;Buttons.c: 39: }
  1312                           ;Buttons.c: 40: return (FlagButton2);
  1313  0003E8  5031               	movf	_FlagButton2,w,c
  1314  0003EA  0012               	return	
  1315  0003EC                     __end_of_getButton2:
  1316                           	opt stack 0
  1317                           tblptru	equ	0xFF8
  1318                           tblptrh	equ	0xFF7
  1319                           tblptrl	equ	0xFF6
  1320                           tablat	equ	0xFF5
  1321                           postinc0	equ	0xFEE
  1322                           wreg	equ	0xFE8
  1323                           postdec1	equ	0xFE5
  1324                           plusw1	equ	0xFE3
  1325                           fsr1l	equ	0xFE1
  1326                           plusw2	equ	0xFDB
  1327                           status	equ	0xFD8
  1328                           
  1329 ;; *************** function _getButton1 *****************
  1330 ;; Defined at:
  1331 ;;		line 20 in file "Buttons.c"
  1332 ;; Parameters:    Size  Location     Type
  1333 ;;		None
  1334 ;; Auto vars:     Size  Location     Type
  1335 ;;		None
  1336 ;; Return value:  Size  Location     Type
  1337 ;;                  1    wreg      unsigned char 
  1338 ;; Registers used:
  1339 ;;		wreg, status,2
  1340 ;; Tracked objects:
  1341 ;;		On entry : 0/0
  1342 ;;		On exit  : 0/0
  1343 ;;		Unchanged: 0/0
  1344 ;; Data sizes:     COMRAM   BANK0   BANK1   BANK2
  1345 ;;      Params:         0       0       0       0
  1346 ;;      Locals:         0       0       0       0
  1347 ;;      Temps:          0       0       0       0
  1348 ;;      Totals:         0       0       0       0
  1349 ;;Total ram usage:        0 bytes
  1350 ;; Hardware stack levels used:    1
  1351 ;; Hardware stack levels required when called:    1
  1352 ;; This function calls:
  1353 ;;		Nothing
  1354 ;; This function is called by:
  1355 ;;		_main
  1356 ;;		_generalView
  1357 ;; This function uses a non-reentrant model
  1358 ;;
  1359                           
  1360                           	psect	text2
  1361  0003F8                     __ptext2:
  1362                           	opt stack 0
  1363  0003F8                     _getButton1:
  1364                           	opt stack 29
  1365                           
  1366                           ;Buttons.c: 22: return (FlagButton1);
  1367                           
  1368                           ;incstack = 0
  1369  0003F8  5032               	movf	_FlagButton1,w,c
  1370  0003FA  0012               	return	
  1371  0003FC                     __end_of_getButton1:
  1372                           	opt stack 0
  1373                           tblptru	equ	0xFF8
  1374                           tblptrh	equ	0xFF7
  1375                           tblptrl	equ	0xFF6
  1376                           tablat	equ	0xFF5
  1377                           postinc0	equ	0xFEE
  1378                           wreg	equ	0xFE8
  1379                           postdec1	equ	0xFE5
  1380                           plusw1	equ	0xFE3
  1381                           fsr1l	equ	0xFE1
  1382                           plusw2	equ	0xFDB
  1383                           status	equ	0xFD8
  1384                           
  1385 ;; *************** function _GPIO_sourceClock *****************
  1386 ;; Defined at:
  1387 ;;		line 18 in file "GPIO.c"
  1388 ;; Parameters:    Size  Location     Type
  1389 ;;  clk             1    wreg     enum E3061
  1390 ;; Auto vars:     Size  Location     Type
  1391 ;;  clk             1    0[BANK0 ] enum E3061
  1392 ;; Return value:  Size  Location     Type
  1393 ;;                  1    wreg      void 
  1394 ;; Registers used:
  1395 ;;		wreg, status,2, status,0
  1396 ;; Tracked objects:
  1397 ;;		On entry : 0/0
  1398 ;;		On exit  : 0/0
  1399 ;;		Unchanged: 0/0
  1400 ;; Data sizes:     COMRAM   BANK0   BANK1   BANK2
  1401 ;;      Params:         0       0       0       0
  1402 ;;      Locals:         0       1       0       0
  1403 ;;      Temps:          0       0       0       0
  1404 ;;      Totals:         0       1       0       0
  1405 ;;Total ram usage:        1 bytes
  1406 ;; Hardware stack levels used:    1
  1407 ;; Hardware stack levels required when called:    1
  1408 ;; This function calls:
  1409 ;;		Nothing
  1410 ;; This function is called by:
  1411 ;;		_main
  1412 ;; This function uses a non-reentrant model
  1413 ;;
  1414                           
  1415                           	psect	text3
  1416  0002F4                     __ptext3:
  1417                           	opt stack 0
  1418  0002F4                     _GPIO_sourceClock:
  1419                           	opt stack 29
  1420                           
  1421                           ;incstack = 0
  1422                           ;GPIO_sourceClock@clk stored from wreg
  1423  0002F4  0100               	movlb	0	; () banked
  1424  0002F6  6F8A               	movwf	GPIO_sourceClock@clk& (0+255),b
  1425                           
  1426                           ;GPIO.c: 20: switch(clk)
  1427  0002F8  D014               	goto	l64
  1428  0002FA                     
  1429                           ;GPIO.c: 23: OSCCON |= (0x72);
  1430  0002FA  0E72               	movlw	114
  1431  0002FC  12D3               	iorwf	4051,f,c	;volatile
  1432                           
  1433                           ;GPIO.c: 24: break;
  1434  0002FE  0012               	return	
  1435  000300                     
  1436                           ;GPIO.c: 26: OSCCON |= (0x60);
  1437  000300  0E60               	movlw	96
  1438  000302  12D3               	iorwf	4051,f,c	;volatile
  1439                           
  1440                           ;GPIO.c: 27: break;
  1441  000304  0012               	return	
  1442  000306                     
  1443                           ;GPIO.c: 29: OSCCON |= (0x50);
  1444  000306  0E50               	movlw	80
  1445  000308  12D3               	iorwf	4051,f,c	;volatile
  1446                           
  1447                           ;GPIO.c: 30: break;
  1448  00030A  0012               	return	
  1449  00030C                     
  1450                           ;GPIO.c: 32: OSCCON |= (0x40);
  1451  00030C  8CD3               	bsf	4051,6,c	;volatile
  1452                           
  1453                           ;GPIO.c: 33: break;
  1454  00030E  0012               	return	
  1455  000310                     
  1456                           ;GPIO.c: 35: OSCCON |= (0x30);
  1457  000310  0E30               	movlw	48
  1458  000312  12D3               	iorwf	4051,f,c	;volatile
  1459                           
  1460                           ;GPIO.c: 36: break;
  1461  000314  0012               	return	
  1462  000316                     
  1463                           ;GPIO.c: 38: OSCCON |= (0x20);
  1464  000316  8AD3               	bsf	4051,5,c	;volatile
  1465                           
  1466                           ;GPIO.c: 39: break;
  1467  000318  0012               	return	
  1468  00031A                     
  1469                           ;GPIO.c: 41: OSCCON |= (0x10);
  1470  00031A  88D3               	bsf	4051,4,c	;volatile
  1471                           
  1472                           ;GPIO.c: 42: break;
  1473  00031C  0012               	return	
  1474  00031E                     
  1475                           ;GPIO.c: 44: OSCCON |= (0x00);
  1476  00031E  50D3               	movf	4051,w,c	;volatile
  1477                           
  1478                           ;GPIO.c: 48: }
  1479                           
  1480                           ;GPIO.c: 47: break;
  1481                           
  1482                           ;GPIO.c: 46: default:
  1483                           
  1484                           ;GPIO.c: 45: break;
  1485  000320  0012               	return	
  1486  000322                     l64:
  1487  000322  0100               	movlb	0	; () banked
  1488  000324  518A               	movf	GPIO_sourceClock@clk& (0+255),w,b
  1489                           
  1490                           ; Switch size 1, requested type "space"
  1491                           ; Number of cases is 8, Range of values is 0 to 7
  1492                           ; switch strategies available:
  1493                           ; Name         Instructions Cycles
  1494                           ; simple_byte           25    13 (average)
  1495                           ;	Chosen strategy is simple_byte
  1496  000326  0A00               	xorlw	0	; case 0
  1497  000328  B4D8               	btfsc	status,2,c
  1498  00032A  D7E7               	goto	l65
  1499  00032C  0A01               	xorlw	1	; case 1
  1500  00032E  B4D8               	btfsc	status,2,c
  1501  000330  D7E7               	goto	l67
  1502  000332  0A03               	xorlw	3	; case 2
  1503  000334  B4D8               	btfsc	status,2,c
  1504  000336  D7E7               	goto	l68
  1505  000338  0A01               	xorlw	1	; case 3
  1506  00033A  B4D8               	btfsc	status,2,c
  1507  00033C  D7E7               	goto	l69
  1508  00033E  0A07               	xorlw	7	; case 4
  1509  000340  B4D8               	btfsc	status,2,c
  1510  000342  D7E6               	goto	l70
  1511  000344  0A01               	xorlw	1	; case 5
  1512  000346  B4D8               	btfsc	status,2,c
  1513  000348  D7E6               	goto	l71
  1514  00034A  0A03               	xorlw	3	; case 6
  1515  00034C  B4D8               	btfsc	status,2,c
  1516  00034E  D7E5               	goto	l72
  1517  000350  0A01               	xorlw	1	; case 7
  1518  000352  A4D8               	btfss	status,2,c
  1519  000354  0012               	return	
  1520  000356  D7E3               	goto	l73
  1521  000358                     __end_of_GPIO_sourceClock:
  1522                           	opt stack 0
  1523                           tblptru	equ	0xFF8
  1524                           tblptrh	equ	0xFF7
  1525                           tblptrl	equ	0xFF6
  1526                           tablat	equ	0xFF5
  1527                           postinc0	equ	0xFEE
  1528                           wreg	equ	0xFE8
  1529                           postdec1	equ	0xFE5
  1530                           plusw1	equ	0xFE3
  1531                           fsr1l	equ	0xFE1
  1532                           plusw2	equ	0xFDB
  1533                           status	equ	0xFD8
  1534                           
  1535 ;; *************** function _GPIO_setPIN *****************
  1536 ;; Defined at:
  1537 ;;		line 151 in file "GPIO.c"
  1538 ;; Parameters:    Size  Location     Type
  1539 ;;  portName        1    wreg     enum E3075
  1540 ;;  pin             1    0[BANK0 ] unsigned char 
  1541 ;; Auto vars:     Size  Location     Type
  1542 ;;  portName        1    3[BANK0 ] enum E3075
  1543 ;; Return value:  Size  Location     Type
  1544 ;;                  1    wreg      void 
  1545 ;; Registers used:
  1546 ;;		wreg, status,2, status,0
  1547 ;; Tracked objects:
  1548 ;;		On entry : 0/0
  1549 ;;		On exit  : 0/0
  1550 ;;		Unchanged: 0/0
  1551 ;; Data sizes:     COMRAM   BANK0   BANK1   BANK2
  1552 ;;      Params:         0       1       0       0
  1553 ;;      Locals:         0       1       0       0
  1554 ;;      Temps:          0       2       0       0
  1555 ;;      Totals:         0       4       0       0
  1556 ;;Total ram usage:        4 bytes
  1557 ;; Hardware stack levels used:    1
  1558 ;; Hardware stack levels required when called:    1
  1559 ;; This function calls:
  1560 ;;		Nothing
  1561 ;; This function is called by:
  1562 ;;		_main
  1563 ;;		_LCDNokia_init
  1564 ;;		_LCDNokia_writeByte
  1565 ;; This function uses a non-reentrant model
  1566 ;;
  1567                           
  1568                           	psect	text4
  1569  000216                     __ptext4:
  1570                           	opt stack 0
  1571  000216                     _GPIO_setPIN:
  1572                           	opt stack 29
  1573                           
  1574                           ;incstack = 0
  1575                           ;GPIO_setPIN@portName stored from wreg
  1576  000216  0100               	movlb	0	; () banked
  1577  000218  6F8D               	movwf	GPIO_setPIN@portName& (0+255),b
  1578                           
  1579                           ;GPIO.c: 154: switch(portName)
  1580  00021A  D02B               	goto	l126
  1581  00021C                     
  1582                           ;GPIO.c: 157: PORTA |= (1<<pin);
  1583  00021C  C08A  F08B         	movff	GPIO_setPIN@pin,??_GPIO_setPIN
  1584  000220  0E01               	movlw	1
  1585  000222  0100               	movlb	0	; () banked
  1586  000224  6F8C               	movwf	(??_GPIO_setPIN+1)& (0+255),b
  1587  000226  2B8B               	incf	??_GPIO_setPIN& (0+255),f,b
  1588  000228  D002               	goto	u1244
  1589  00022A                     u1245:
  1590  00022A  90D8               	bcf	status,0,c
  1591  00022C  378C               	rlcf	(??_GPIO_setPIN+1)& (0+255),f,b
  1592  00022E                     u1244:
  1593  00022E  2F8B               	decfsz	??_GPIO_setPIN& (0+255),f,b
  1594  000230  D7FC               	goto	u1245
  1595  000232  0100               	movlb	0	; () banked
  1596  000234  518C               	movf	(??_GPIO_setPIN+1)& (0+255),w,b
  1597  000236  1280               	iorwf	3968,f,c	;volatile
  1598                           
  1599                           ;GPIO.c: 158: break;
  1600  000238  0012               	return	
  1601  00023A                     
  1602                           ; BSR set to: 0
  1603                           ;GPIO.c: 160: PORTB |= (1<<pin);
  1604                           
  1605                           ; BSR set to: 0
  1606  00023A  C08A  F08B         	movff	GPIO_setPIN@pin,??_GPIO_setPIN
  1607  00023E  0E01               	movlw	1
  1608  000240  6F8C               	movwf	(??_GPIO_setPIN+1)& (0+255),b
  1609  000242  2B8B               	incf	??_GPIO_setPIN& (0+255),f,b
  1610  000244  D002               	goto	u1254
  1611  000246                     u1255:
  1612  000246  90D8               	bcf	status,0,c
  1613  000248  378C               	rlcf	(??_GPIO_setPIN+1)& (0+255),f,b
  1614  00024A                     u1254:
  1615  00024A  2F8B               	decfsz	??_GPIO_setPIN& (0+255),f,b
  1616  00024C  D7FC               	goto	u1255
  1617  00024E  0100               	movlb	0	; () banked
  1618  000250  518C               	movf	(??_GPIO_setPIN+1)& (0+255),w,b
  1619  000252  1281               	iorwf	3969,f,c	;volatile
  1620                           
  1621                           ;GPIO.c: 161: break;
  1622  000254  0012               	return	
  1623  000256                     
  1624                           ; BSR set to: 0
  1625                           ;GPIO.c: 163: PORTC |= (1<<pin);
  1626                           
  1627                           ; BSR set to: 0
  1628  000256  C08A  F08B         	movff	GPIO_setPIN@pin,??_GPIO_setPIN
  1629  00025A  0E01               	movlw	1
  1630  00025C  6F8C               	movwf	(??_GPIO_setPIN+1)& (0+255),b
  1631  00025E  2B8B               	incf	??_GPIO_setPIN& (0+255),f,b
  1632  000260  D002               	goto	u1264
  1633  000262                     u1265:
  1634  000262  90D8               	bcf	status,0,c
  1635  000264  378C               	rlcf	(??_GPIO_setPIN+1)& (0+255),f,b
  1636  000266                     u1264:
  1637  000266  2F8B               	decfsz	??_GPIO_setPIN& (0+255),f,b
  1638  000268  D7FC               	goto	u1265
  1639  00026A  0100               	movlb	0	; () banked
  1640  00026C  518C               	movf	(??_GPIO_setPIN+1)& (0+255),w,b
  1641  00026E  1282               	iorwf	3970,f,c	;volatile
  1642                           
  1643                           ; BSR set to: 0
  1644                           ;GPIO.c: 167: }
  1645                           
  1646                           ; BSR set to: 0
  1647                           ;GPIO.c: 166: break;
  1648                           
  1649                           ;GPIO.c: 165: default:
  1650                           
  1651                           ;GPIO.c: 164: break;
  1652  000270  0012               	return	
  1653  000272                     l126:
  1654                           
  1655                           ; BSR set to: 0
  1656  000272  0100               	movlb	0	; () banked
  1657  000274  518D               	movf	GPIO_setPIN@portName& (0+255),w,b
  1658                           
  1659                           ; Switch size 1, requested type "space"
  1660                           ; Number of cases is 3, Range of values is 0 to 2
  1661                           ; switch strategies available:
  1662                           ; Name         Instructions Cycles
  1663                           ; simple_byte           10     6 (average)
  1664                           ;	Chosen strategy is simple_byte
  1665  000276  0A00               	xorlw	0	; case 0
  1666  000278  B4D8               	btfsc	status,2,c
  1667  00027A  D7D0               	goto	l127
  1668  00027C  0A01               	xorlw	1	; case 1
  1669  00027E  B4D8               	btfsc	status,2,c
  1670  000280  D7DC               	goto	l129
  1671  000282  0A03               	xorlw	3	; case 2
  1672  000284  A4D8               	btfss	status,2,c
  1673  000286  0012               	return	
  1674  000288  D7E6               	goto	l130
  1675  00028A                     __end_of_GPIO_setPIN:
  1676                           	opt stack 0
  1677                           tblptru	equ	0xFF8
  1678                           tblptrh	equ	0xFF7
  1679                           tblptrl	equ	0xFF6
  1680                           tablat	equ	0xFF5
  1681                           postinc0	equ	0xFEE
  1682                           wreg	equ	0xFE8
  1683                           postdec1	equ	0xFE5
  1684                           plusw1	equ	0xFE3
  1685                           fsr1l	equ	0xFE1
  1686                           plusw2	equ	0xFDB
  1687                           status	equ	0xFD8
  1688                           
  1689 ;; *************** function _GPIO_clearPIN *****************
  1690 ;; Defined at:
  1691 ;;		line 170 in file "GPIO.c"
  1692 ;; Parameters:    Size  Location     Type
  1693 ;;  portName        1    wreg     enum E3075
  1694 ;;  pin             1    0[BANK0 ] unsigned char 
  1695 ;; Auto vars:     Size  Location     Type
  1696 ;;  portName        1    3[BANK0 ] enum E3075
  1697 ;; Return value:  Size  Location     Type
  1698 ;;                  1    wreg      void 
  1699 ;; Registers used:
  1700 ;;		wreg, status,2, status,0
  1701 ;; Tracked objects:
  1702 ;;		On entry : 0/0
  1703 ;;		On exit  : 0/0
  1704 ;;		Unchanged: 0/0
  1705 ;; Data sizes:     COMRAM   BANK0   BANK1   BANK2
  1706 ;;      Params:         0       1       0       0
  1707 ;;      Locals:         0       1       0       0
  1708 ;;      Temps:          0       2       0       0
  1709 ;;      Totals:         0       4       0       0
  1710 ;;Total ram usage:        4 bytes
  1711 ;; Hardware stack levels used:    1
  1712 ;; Hardware stack levels required when called:    1
  1713 ;; This function calls:
  1714 ;;		Nothing
  1715 ;; This function is called by:
  1716 ;;		_main
  1717 ;;		_LCDNokia_init
  1718 ;;		_LCDNokia_writeByte
  1719 ;; This function uses a non-reentrant model
  1720 ;;
  1721                           
  1722                           	psect	text5
  1723  00019C                     __ptext5:
  1724                           	opt stack 0
  1725  00019C                     _GPIO_clearPIN:
  1726                           	opt stack 29
  1727                           
  1728                           ; BSR set to: 0
  1729                           ;incstack = 0
  1730                           ;GPIO_clearPIN@portName stored from wreg
  1731  00019C  0100               	movlb	0	; () banked
  1732  00019E  6F8D               	movwf	GPIO_clearPIN@portName& (0+255),b
  1733                           
  1734                           ;GPIO.c: 173: switch(portName)
  1735  0001A0  D02E               	goto	l135
  1736  0001A2                     
  1737                           ;GPIO.c: 176: PORTA &= ~(1<<pin);
  1738  0001A2  C08A  F08B         	movff	GPIO_clearPIN@pin,??_GPIO_clearPIN
  1739  0001A6  0E01               	movlw	1
  1740  0001A8  0100               	movlb	0	; () banked
  1741  0001AA  6F8C               	movwf	(??_GPIO_clearPIN+1)& (0+255),b
  1742  0001AC  2B8B               	incf	??_GPIO_clearPIN& (0+255),f,b
  1743  0001AE  D002               	goto	u1204
  1744  0001B0                     u1205:
  1745  0001B0  90D8               	bcf	status,0,c
  1746  0001B2  378C               	rlcf	(??_GPIO_clearPIN+1)& (0+255),f,b
  1747  0001B4                     u1204:
  1748  0001B4  2F8B               	decfsz	??_GPIO_clearPIN& (0+255),f,b
  1749  0001B6  D7FC               	goto	u1205
  1750  0001B8  0100               	movlb	0	; () banked
  1751  0001BA  518C               	movf	(??_GPIO_clearPIN+1)& (0+255),w,b
  1752  0001BC  0AFF               	xorlw	255
  1753  0001BE  1680               	andwf	3968,f,c	;volatile
  1754                           
  1755                           ;GPIO.c: 177: break;
  1756  0001C0  0012               	return	
  1757  0001C2                     
  1758                           ; BSR set to: 0
  1759                           ;GPIO.c: 179: PORTB &= ~(1<<pin);
  1760                           
  1761                           ; BSR set to: 0
  1762  0001C2  C08A  F08B         	movff	GPIO_clearPIN@pin,??_GPIO_clearPIN
  1763  0001C6  0E01               	movlw	1
  1764  0001C8  6F8C               	movwf	(??_GPIO_clearPIN+1)& (0+255),b
  1765  0001CA  2B8B               	incf	??_GPIO_clearPIN& (0+255),f,b
  1766  0001CC  D002               	goto	u1214
  1767  0001CE                     u1215:
  1768  0001CE  90D8               	bcf	status,0,c
  1769  0001D0  378C               	rlcf	(??_GPIO_clearPIN+1)& (0+255),f,b
  1770  0001D2                     u1214:
  1771  0001D2  2F8B               	decfsz	??_GPIO_clearPIN& (0+255),f,b
  1772  0001D4  D7FC               	goto	u1215
  1773  0001D6  0100               	movlb	0	; () banked
  1774  0001D8  518C               	movf	(??_GPIO_clearPIN+1)& (0+255),w,b
  1775  0001DA  0AFF               	xorlw	255
  1776  0001DC  1681               	andwf	3969,f,c	;volatile
  1777                           
  1778                           ;GPIO.c: 180: break;
  1779  0001DE  0012               	return	
  1780  0001E0                     
  1781                           ; BSR set to: 0
  1782                           ;GPIO.c: 182: PORTC &= ~(1<<pin);
  1783                           
  1784                           ; BSR set to: 0
  1785  0001E0  C08A  F08B         	movff	GPIO_clearPIN@pin,??_GPIO_clearPIN
  1786  0001E4  0E01               	movlw	1
  1787  0001E6  6F8C               	movwf	(??_GPIO_clearPIN+1)& (0+255),b
  1788  0001E8  2B8B               	incf	??_GPIO_clearPIN& (0+255),f,b
  1789  0001EA  D002               	goto	u1224
  1790  0001EC                     u1225:
  1791  0001EC  90D8               	bcf	status,0,c
  1792  0001EE  378C               	rlcf	(??_GPIO_clearPIN+1)& (0+255),f,b
  1793  0001F0                     u1224:
  1794  0001F0  2F8B               	decfsz	??_GPIO_clearPIN& (0+255),f,b
  1795  0001F2  D7FC               	goto	u1225
  1796  0001F4  0100               	movlb	0	; () banked
  1797  0001F6  518C               	movf	(??_GPIO_clearPIN+1)& (0+255),w,b
  1798  0001F8  0AFF               	xorlw	255
  1799  0001FA  1682               	andwf	3970,f,c	;volatile
  1800                           
  1801                           ; BSR set to: 0
  1802                           ;GPIO.c: 186: }
  1803                           
  1804                           ; BSR set to: 0
  1805                           ;GPIO.c: 185: break;
  1806                           
  1807                           ;GPIO.c: 184: default:
  1808                           
  1809                           ;GPIO.c: 183: break;
  1810  0001FC  0012               	return	
  1811  0001FE                     l135:
  1812                           
  1813                           ; BSR set to: 0
  1814  0001FE  0100               	movlb	0	; () banked
  1815  000200  518D               	movf	GPIO_clearPIN@portName& (0+255),w,b
  1816                           
  1817                           ; Switch size 1, requested type "space"
  1818                           ; Number of cases is 3, Range of values is 0 to 2
  1819                           ; switch strategies available:
  1820                           ; Name         Instructions Cycles
  1821                           ; simple_byte           10     6 (average)
  1822                           ;	Chosen strategy is simple_byte
  1823  000202  0A00               	xorlw	0	; case 0
  1824  000204  B4D8               	btfsc	status,2,c
  1825  000206  D7CD               	goto	l136
  1826  000208  0A01               	xorlw	1	; case 1
  1827  00020A  B4D8               	btfsc	status,2,c
  1828  00020C  D7DA               	goto	l138
  1829  00020E  0A03               	xorlw	3	; case 2
  1830  000210  A4D8               	btfss	status,2,c
  1831  000212  0012               	return	
  1832  000214  D7E5               	goto	l139
  1833  000216                     __end_of_GPIO_clearPIN:
  1834                           	opt stack 0
  1835                           tblptru	equ	0xFF8
  1836                           tblptrh	equ	0xFF7
  1837                           tblptrl	equ	0xFF6
  1838                           tablat	equ	0xFF5
  1839                           postinc0	equ	0xFEE
  1840                           wreg	equ	0xFE8
  1841                           postdec1	equ	0xFE5
  1842                           plusw1	equ	0xFE3
  1843                           fsr1l	equ	0xFE1
  1844                           plusw2	equ	0xFDB
  1845                           status	equ	0xFD8
  1846                           
  1847 ;; *************** function _ButtonInt_config *****************
  1848 ;; Defined at:
  1849 ;;		line 68 in file "Buttons.c"
  1850 ;; Parameters:    Size  Location     Type
  1851 ;;		None
  1852 ;; Auto vars:     Size  Location     Type
  1853 ;;		None
  1854 ;; Return value:  Size  Location     Type
  1855 ;;                  1    wreg      void 
  1856 ;; Registers used:
  1857 ;;		wreg, status,2, status,0, cstack
  1858 ;; Tracked objects:
  1859 ;;		On entry : 0/0
  1860 ;;		On exit  : 0/0
  1861 ;;		Unchanged: 0/0
  1862 ;; Data sizes:     COMRAM   BANK0   BANK1   BANK2
  1863 ;;      Params:         0       0       0       0
  1864 ;;      Locals:         0       0       0       0
  1865 ;;      Temps:          0       0       0       0
  1866 ;;      Totals:         0       0       0       0
  1867 ;;Total ram usage:        0 bytes
  1868 ;; Hardware stack levels used:    1
  1869 ;; Hardware stack levels required when called:    2
  1870 ;; This function calls:
  1871 ;;		_GPIO_dataDirectionPIN
  1872 ;; This function is called by:
  1873 ;;		_main
  1874 ;; This function uses a non-reentrant model
  1875 ;;
  1876                           
  1877                           	psect	text6
  1878  00039E                     __ptext6:
  1879                           	opt stack 0
  1880  00039E                     _ButtonInt_config:
  1881                           	opt stack 28
  1882                           
  1883                           ;Buttons.c: 71: GPIO_dataDirectionPIN(GPIO_C, 3, GPIO_INPUT);
  1884                           
  1885                           ; BSR set to: 0
  1886                           ;incstack = 0
  1887  00039E  0E03               	movlw	3
  1888  0003A0  0100               	movlb	0	; () banked
  1889  0003A2  6F8A               	movwf	GPIO_dataDirectionPIN@pin& (0+255),b
  1890  0003A4  0E00               	movlw	0
  1891  0003A6  6F8B               	movwf	GPIO_dataDirectionPIN@state& (0+255),b
  1892  0003A8  0E02               	movlw	2
  1893  0003AA  EC56  F000         	call	_GPIO_dataDirectionPIN
  1894                           
  1895                           ;Buttons.c: 72: INTCONbits.INT0E = 1;
  1896  0003AE  88F2               	bsf	intcon,4,c	;volatile
  1897                           
  1898                           ;Buttons.c: 73: INTCONbits.GIE = 0;
  1899  0003B0  9EF2               	bcf	intcon,7,c	;volatile
  1900                           
  1901                           ;Buttons.c: 74: INTCON2bits.INTEDG0 = 1;
  1902  0003B2  8CF1               	bsf	intcon2,6,c	;volatile
  1903                           
  1904                           ;Buttons.c: 75: INTCONbits.INT0F = 0;
  1905  0003B4  92F2               	bcf	intcon,1,c	;volatile
  1906                           
  1907                           ;Buttons.c: 83: GPIO_dataDirectionPIN(GPIO_A, 3, GPIO_INPUT);
  1908  0003B6  0E03               	movlw	3
  1909  0003B8  0100               	movlb	0	; () banked
  1910  0003BA  6F8A               	movwf	GPIO_dataDirectionPIN@pin& (0+255),b
  1911  0003BC  0E00               	movlw	0
  1912  0003BE  6F8B               	movwf	GPIO_dataDirectionPIN@state& (0+255),b
  1913  0003C0  0E00               	movlw	0
  1914  0003C2  EC56  F000         	call	_GPIO_dataDirectionPIN
  1915                           
  1916                           ;Buttons.c: 84: ANSEL0bits.ANS3 = 0;
  1917  0003C6  96B8               	bcf	4024,3,c	;volatile
  1918                           
  1919                           ;Buttons.c: 86: GPIO_dataDirectionPIN(GPIO_A, 4, GPIO_INPUT);
  1920  0003C8  0E04               	movlw	4
  1921  0003CA  0100               	movlb	0	; () banked
  1922  0003CC  6F8A               	movwf	GPIO_dataDirectionPIN@pin& (0+255),b
  1923  0003CE  0E00               	movlw	0
  1924  0003D0  6F8B               	movwf	GPIO_dataDirectionPIN@state& (0+255),b
  1925  0003D2  0E00               	movlw	0
  1926  0003D4  EC56  F000         	call	_GPIO_dataDirectionPIN
  1927                           
  1928                           ;Buttons.c: 87: ANSEL0bits.ANS4 = 0;
  1929  0003D8  98B8               	bcf	4024,4,c	;volatile
  1930  0003DA  0012               	return		;funcret
  1931  0003DC                     __end_of_ButtonInt_config:
  1932                           	opt stack 0
  1933                           tblptru	equ	0xFF8
  1934                           tblptrh	equ	0xFF7
  1935                           tblptrl	equ	0xFF6
  1936                           tablat	equ	0xFF5
  1937                           intcon	equ	0xFF2
  1938                           intcon2	equ	0xFF1
  1939                           postinc0	equ	0xFEE
  1940                           wreg	equ	0xFE8
  1941                           postdec1	equ	0xFE5
  1942                           plusw1	equ	0xFE3
  1943                           fsr1l	equ	0xFE1
  1944                           plusw2	equ	0xFDB
  1945                           status	equ	0xFD8
  1946                           
  1947 ;; *************** function _GPIO_dataDirectionPIN *****************
  1948 ;; Defined at:
  1949 ;;		line 51 in file "GPIO.c"
  1950 ;; Parameters:    Size  Location     Type
  1951 ;;  portName        1    wreg     enum E3075
  1952 ;;  pin             1    0[BANK0 ] unsigned char 
  1953 ;;  state           1    1[BANK0 ] enum E3071
  1954 ;; Auto vars:     Size  Location     Type
  1955 ;;  portName        1    4[BANK0 ] enum E3075
  1956 ;; Return value:  Size  Location     Type
  1957 ;;                  1    wreg      void 
  1958 ;; Registers used:
  1959 ;;		wreg, status,2, status,0
  1960 ;; Tracked objects:
  1961 ;;		On entry : 0/0
  1962 ;;		On exit  : 0/0
  1963 ;;		Unchanged: 0/0
  1964 ;; Data sizes:     COMRAM   BANK0   BANK1   BANK2
  1965 ;;      Params:         0       2       0       0
  1966 ;;      Locals:         0       1       0       0
  1967 ;;      Temps:          0       2       0       0
  1968 ;;      Totals:         0       5       0       0
  1969 ;;Total ram usage:        5 bytes
  1970 ;; Hardware stack levels used:    1
  1971 ;; Hardware stack levels required when called:    1
  1972 ;; This function calls:
  1973 ;;		Nothing
  1974 ;; This function is called by:
  1975 ;;		_main
  1976 ;;		_ButtonInt_config
  1977 ;;		_UART_init
  1978 ;;		_LCDNokia_init
  1979 ;; This function uses a non-reentrant model
  1980 ;;
  1981                           
  1982                           	psect	text7
  1983  0000AC                     __ptext7:
  1984                           	opt stack 0
  1985  0000AC                     _GPIO_dataDirectionPIN:
  1986                           	opt stack 29
  1987                           
  1988                           ;incstack = 0
  1989                           ;GPIO_dataDirectionPIN@portName stored from wreg
  1990  0000AC  0100               	movlb	0	; () banked
  1991  0000AE  6F8E               	movwf	GPIO_dataDirectionPIN@portName& (0+255),b
  1992                           
  1993                           ;GPIO.c: 54: switch(state)
  1994  0000B0  D06C               	goto	l78
  1995  0000B2                     
  1996                           ;GPIO.c: 60: TRISA |= 1<<pin;
  1997  0000B2  C08A  F08C         	movff	GPIO_dataDirectionPIN@pin,??_GPIO_dataDirectionPIN
  1998  0000B6  0E01               	movlw	1
  1999  0000B8  0100               	movlb	0	; () banked
  2000  0000BA  6F8D               	movwf	(??_GPIO_dataDirectionPIN+1)& (0+255),b
  2001  0000BC  2B8C               	incf	??_GPIO_dataDirectionPIN& (0+255),f,b
  2002  0000BE  D002               	goto	u1124
  2003  0000C0                     u1125:
  2004  0000C0  90D8               	bcf	status,0,c
  2005  0000C2  378D               	rlcf	(??_GPIO_dataDirectionPIN+1)& (0+255),f,b
  2006  0000C4                     u1124:
  2007  0000C4  2F8C               	decfsz	??_GPIO_dataDirectionPIN& (0+255),f,b
  2008  0000C6  D7FC               	goto	u1125
  2009  0000C8  0100               	movlb	0	; () banked
  2010  0000CA  518D               	movf	(??_GPIO_dataDirectionPIN+1)& (0+255),w,b
  2011  0000CC  1292               	iorwf	3986,f,c	;volatile
  2012                           
  2013                           ;GPIO.c: 61: break;
  2014  0000CE  0012               	return	
  2015  0000D0                     
  2016                           ; BSR set to: 0
  2017                           ;GPIO.c: 63: TRISB |= 1<<pin;
  2018                           
  2019                           ; BSR set to: 0
  2020  0000D0  C08A  F08C         	movff	GPIO_dataDirectionPIN@pin,??_GPIO_dataDirectionPIN
  2021  0000D4  0E01               	movlw	1
  2022  0000D6  6F8D               	movwf	(??_GPIO_dataDirectionPIN+1)& (0+255),b
  2023  0000D8  2B8C               	incf	??_GPIO_dataDirectionPIN& (0+255),f,b
  2024  0000DA  D002               	goto	u1134
  2025  0000DC                     u1135:
  2026  0000DC  90D8               	bcf	status,0,c
  2027  0000DE  378D               	rlcf	(??_GPIO_dataDirectionPIN+1)& (0+255),f,b
  2028  0000E0                     u1134:
  2029  0000E0  2F8C               	decfsz	??_GPIO_dataDirectionPIN& (0+255),f,b
  2030  0000E2  D7FC               	goto	u1135
  2031  0000E4  0100               	movlb	0	; () banked
  2032  0000E6  518D               	movf	(??_GPIO_dataDirectionPIN+1)& (0+255),w,b
  2033  0000E8  1293               	iorwf	3987,f,c	;volatile
  2034                           
  2035                           ;GPIO.c: 64: break;
  2036  0000EA  0012               	return	
  2037  0000EC                     
  2038                           ; BSR set to: 0
  2039                           ;GPIO.c: 66: TRISC |= 1<<pin;
  2040                           
  2041                           ; BSR set to: 0
  2042  0000EC  C08A  F08C         	movff	GPIO_dataDirectionPIN@pin,??_GPIO_dataDirectionPIN
  2043  0000F0  0E01               	movlw	1
  2044  0000F2  6F8D               	movwf	(??_GPIO_dataDirectionPIN+1)& (0+255),b
  2045  0000F4  2B8C               	incf	??_GPIO_dataDirectionPIN& (0+255),f,b
  2046  0000F6  D002               	goto	u1144
  2047  0000F8                     u1145:
  2048  0000F8  90D8               	bcf	status,0,c
  2049  0000FA  378D               	rlcf	(??_GPIO_dataDirectionPIN+1)& (0+255),f,b
  2050  0000FC                     u1144:
  2051  0000FC  2F8C               	decfsz	??_GPIO_dataDirectionPIN& (0+255),f,b
  2052  0000FE  D7FC               	goto	u1145
  2053  000100  0100               	movlb	0	; () banked
  2054  000102  518D               	movf	(??_GPIO_dataDirectionPIN+1)& (0+255),w,b
  2055  000104  1294               	iorwf	3988,f,c	;volatile
  2056                           
  2057                           ; BSR set to: 0
  2058                           ;GPIO.c: 70: }
  2059                           
  2060                           ; BSR set to: 0
  2061                           ;GPIO.c: 69: break;
  2062                           
  2063                           ;GPIO.c: 68: default:
  2064                           
  2065                           ;GPIO.c: 67: break;
  2066  000106  0012               	return	
  2067  000108                     
  2068                           ; BSR set to: 0
  2069  000108  0100               	movlb	0	; () banked
  2070  00010A  518E               	movf	GPIO_dataDirectionPIN@portName& (0+255),w,b
  2071                           
  2072                           ; Switch size 1, requested type "space"
  2073                           ; Number of cases is 3, Range of values is 0 to 2
  2074                           ; switch strategies available:
  2075                           ; Name         Instructions Cycles
  2076                           ; simple_byte           10     6 (average)
  2077                           ;	Chosen strategy is simple_byte
  2078  00010C  0A00               	xorlw	0	; case 0
  2079  00010E  B4D8               	btfsc	status,2,c
  2080  000110  D7D0               	goto	l81
  2081  000112  0A01               	xorlw	1	; case 1
  2082  000114  B4D8               	btfsc	status,2,c
  2083  000116  D7DC               	goto	l83
  2084  000118  0A03               	xorlw	3	; case 2
  2085  00011A  A4D8               	btfss	status,2,c
  2086                           
  2087                           ; BSR set to: 0
  2088                           ;GPIO.c: 71: break;
  2089  00011C  0012               	return	
  2090  00011E  D7E6               	goto	l84
  2091  000120                     
  2092                           ; BSR set to: 0
  2093                           ;GPIO.c: 76: TRISA &= (0<<pin);
  2094                           
  2095                           ; BSR set to: 0
  2096  000120  C08A  F08C         	movff	GPIO_dataDirectionPIN@pin,??_GPIO_dataDirectionPIN
  2097  000124  0E00               	movlw	0
  2098  000126  6F8D               	movwf	(??_GPIO_dataDirectionPIN+1)& (0+255),b
  2099  000128  2B8C               	incf	??_GPIO_dataDirectionPIN& (0+255),f,b
  2100  00012A  D002               	goto	u1154
  2101  00012C                     u1155:
  2102  00012C  90D8               	bcf	status,0,c
  2103  00012E  378D               	rlcf	(??_GPIO_dataDirectionPIN+1)& (0+255),f,b
  2104  000130                     u1154:
  2105  000130  2F8C               	decfsz	??_GPIO_dataDirectionPIN& (0+255),f,b
  2106  000132  D7FC               	goto	u1155
  2107  000134  0100               	movlb	0	; () banked
  2108  000136  518D               	movf	(??_GPIO_dataDirectionPIN+1)& (0+255),w,b
  2109  000138  1692               	andwf	3986,f,c	;volatile
  2110                           
  2111                           ;GPIO.c: 77: break;
  2112  00013A  0012               	return	
  2113  00013C                     
  2114                           ; BSR set to: 0
  2115                           ;GPIO.c: 79: TRISB &= (0<<pin);
  2116                           
  2117                           ; BSR set to: 0
  2118  00013C  C08A  F08C         	movff	GPIO_dataDirectionPIN@pin,??_GPIO_dataDirectionPIN
  2119  000140  0E00               	movlw	0
  2120  000142  6F8D               	movwf	(??_GPIO_dataDirectionPIN+1)& (0+255),b
  2121  000144  2B8C               	incf	??_GPIO_dataDirectionPIN& (0+255),f,b
  2122  000146  D002               	goto	u1164
  2123  000148                     u1165:
  2124  000148  90D8               	bcf	status,0,c
  2125  00014A  378D               	rlcf	(??_GPIO_dataDirectionPIN+1)& (0+255),f,b
  2126  00014C                     u1164:
  2127  00014C  2F8C               	decfsz	??_GPIO_dataDirectionPIN& (0+255),f,b
  2128  00014E  D7FC               	goto	u1165
  2129  000150  0100               	movlb	0	; () banked
  2130  000152  518D               	movf	(??_GPIO_dataDirectionPIN+1)& (0+255),w,b
  2131  000154  1693               	andwf	3987,f,c	;volatile
  2132                           
  2133                           ;GPIO.c: 80: break;
  2134  000156  0012               	return	
  2135  000158                     
  2136                           ; BSR set to: 0
  2137                           ;GPIO.c: 82: TRISC &= (0<<pin);
  2138                           
  2139                           ; BSR set to: 0
  2140  000158  C08A  F08C         	movff	GPIO_dataDirectionPIN@pin,??_GPIO_dataDirectionPIN
  2141  00015C  0E00               	movlw	0
  2142  00015E  6F8D               	movwf	(??_GPIO_dataDirectionPIN+1)& (0+255),b
  2143  000160  2B8C               	incf	??_GPIO_dataDirectionPIN& (0+255),f,b
  2144  000162  D002               	goto	u1174
  2145  000164                     u1175:
  2146  000164  90D8               	bcf	status,0,c
  2147  000166  378D               	rlcf	(??_GPIO_dataDirectionPIN+1)& (0+255),f,b
  2148  000168                     u1174:
  2149  000168  2F8C               	decfsz	??_GPIO_dataDirectionPIN& (0+255),f,b
  2150  00016A  D7FC               	goto	u1175
  2151  00016C  0100               	movlb	0	; () banked
  2152  00016E  518D               	movf	(??_GPIO_dataDirectionPIN+1)& (0+255),w,b
  2153  000170  1694               	andwf	3988,f,c	;volatile
  2154                           
  2155                           ; BSR set to: 0
  2156                           ;GPIO.c: 86: }
  2157                           
  2158                           ; BSR set to: 0
  2159                           ;GPIO.c: 85: break;
  2160                           
  2161                           ;GPIO.c: 84: default:
  2162                           
  2163                           ;GPIO.c: 83: break;
  2164  000172  0012               	return	
  2165  000174                     
  2166                           ; BSR set to: 0
  2167                           
  2168                           ; BSR set to: 0
  2169  000174  518E               	movf	GPIO_dataDirectionPIN@portName& (0+255),w,b
  2170                           
  2171                           ; Switch size 1, requested type "space"
  2172                           ; Number of cases is 3, Range of values is 0 to 2
  2173                           ; switch strategies available:
  2174                           ; Name         Instructions Cycles
  2175                           ; simple_byte           10     6 (average)
  2176                           ;	Chosen strategy is simple_byte
  2177  000176  0A00               	xorlw	0	; case 0
  2178  000178  B4D8               	btfsc	status,2,c
  2179  00017A  D7D2               	goto	l89
  2180  00017C  0A01               	xorlw	1	; case 1
  2181  00017E  B4D8               	btfsc	status,2,c
  2182  000180  D7DD               	goto	l91
  2183  000182  0A03               	xorlw	3	; case 2
  2184  000184  A4D8               	btfss	status,2,c
  2185                           
  2186                           ; BSR set to: 0
  2187                           ;GPIO.c: 90: }
  2188                           
  2189                           ; BSR set to: 0
  2190                           ;GPIO.c: 89: break;
  2191                           
  2192                           ;GPIO.c: 88: default:
  2193                           
  2194                           ; BSR set to: 0
  2195                           ;GPIO.c: 87: break;
  2196  000186  0012               	return	
  2197  000188  D7E7               	goto	l92
  2198  00018A                     l78:
  2199                           
  2200                           ; BSR set to: 0
  2201  00018A  0100               	movlb	0	; () banked
  2202  00018C  518B               	movf	GPIO_dataDirectionPIN@state& (0+255),w,b
  2203                           
  2204                           ; Switch size 1, requested type "space"
  2205                           ; Number of cases is 2, Range of values is 0 to 1
  2206                           ; switch strategies available:
  2207                           ; Name         Instructions Cycles
  2208                           ; simple_byte            7     4 (average)
  2209                           ;	Chosen strategy is simple_byte
  2210  00018E  0A00               	xorlw	0	; case 0
  2211  000190  B4D8               	btfsc	status,2,c
  2212  000192  D7BA               	goto	l80
  2213  000194  0A01               	xorlw	1	; case 1
  2214  000196  A4D8               	btfss	status,2,c
  2215  000198  0012               	return	
  2216  00019A  D7EC               	goto	l88
  2217  00019C                     __end_of_GPIO_dataDirectionPIN:
  2218                           	opt stack 0
  2219                           tblptru	equ	0xFF8
  2220                           tblptrh	equ	0xFF7
  2221                           tblptrl	equ	0xFF6
  2222                           tablat	equ	0xFF5
  2223                           intcon	equ	0xFF2
  2224                           intcon2	equ	0xFF1
  2225                           postinc0	equ	0xFEE
  2226                           wreg	equ	0xFE8
  2227                           postdec1	equ	0xFE5
  2228                           plusw1	equ	0xFE3
  2229                           fsr1l	equ	0xFE1
  2230                           plusw2	equ	0xFDB
  2231                           status	equ	0xFD8
  2232                           
  2233 ;; *************** function _Button1 *****************
  2234 ;; Defined at:
  2235 ;;		line 9 in file "Buttons.c"
  2236 ;; Parameters:    Size  Location     Type
  2237 ;;		None
  2238 ;; Auto vars:     Size  Location     Type
  2239 ;;		None
  2240 ;; Return value:  Size  Location     Type
  2241 ;;                  1    wreg      void 
  2242 ;; Registers used:
  2243 ;;		wreg, status,2
  2244 ;; Tracked objects:
  2245 ;;		On entry : 0/0
  2246 ;;		On exit  : 0/0
  2247 ;;		Unchanged: 0/0
  2248 ;; Data sizes:     COMRAM   BANK0   BANK1   BANK2
  2249 ;;      Params:         0       0       0       0
  2250 ;;      Locals:         0       0       0       0
  2251 ;;      Temps:         18       0       0       0
  2252 ;;      Totals:        18       0       0       0
  2253 ;;Total ram usage:       18 bytes
  2254 ;; Hardware stack levels used:    1
  2255 ;; This function calls:
  2256 ;;		Nothing
  2257 ;; This function is called by:
  2258 ;;		Interrupt level 2
  2259 ;; This function uses a non-reentrant model
  2260 ;;
  2261                           
  2262                           	psect	intcode
  2263  000008                     __pintcode:
  2264                           	opt stack 0
  2265  000008                     _Button1:
  2266                           	opt stack 28
  2267                           
  2268                           ; BSR set to: 0
  2269                           ;incstack = 0
  2270  000008  824E               	bsf	btemp,1,c	;set compiler interrupt flag (level 2)
  2271  00000A  CFFA F03C          	movff	pclath,??_Button1
  2272  00000E  CFFB F03D          	movff	pclatu,??_Button1+1
  2273  000012  CFE9 F03E          	movff	fsr0l,??_Button1+2
  2274  000016  CFEA F03F          	movff	fsr0h,??_Button1+3
  2275  00001A  CFE1 F040          	movff	fsr1l,??_Button1+4
  2276  00001E  CFE2 F041          	movff	fsr1h,??_Button1+5
  2277  000022  CFD9 F042          	movff	fsr2l,??_Button1+6
  2278  000026  CFDA F043          	movff	fsr2h,??_Button1+7
  2279  00002A  CFF3 F044          	movff	prodl,??_Button1+8
  2280  00002E  CFF4 F045          	movff	prodh,??_Button1+9
  2281  000032  CFF6 F046          	movff	tblptrl,??_Button1+10
  2282  000036  CFF7 F047          	movff	tblptrh,??_Button1+11
  2283  00003A  CFF8 F048          	movff	tblptru,??_Button1+12
  2284  00003E  CFF5 F049          	movff	tablat,??_Button1+13
  2285  000042  C04E  F04A         	movff	btemp,??_Button1+14
  2286  000046  C04F  F04B         	movff	btemp+1,??_Button1+15
  2287  00004A  C050  F04C         	movff	btemp+2,??_Button1+16
  2288  00004E  C051  F04D         	movff	btemp+3,??_Button1+17
  2289                           
  2290                           ;Buttons.c: 12: if(INT0IF)
  2291  000052  A2F2               	btfss	intcon,1,c	;volatile
  2292  000054  D003               	goto	i2l604
  2293                           
  2294                           ;Buttons.c: 13: {
  2295                           ;Buttons.c: 15: INT0IF = 0;
  2296  000056  92F2               	bcf	intcon,1,c	;volatile
  2297                           
  2298                           ;Buttons.c: 16: FlagButton1 = 1;
  2299  000058  0E01               	movlw	1
  2300  00005A  6E32               	movwf	_FlagButton1,c
  2301  00005C                     i2l604:
  2302  00005C  C04D  F051         	movff	??_Button1+17,btemp+3
  2303  000060  C04C  F050         	movff	??_Button1+16,btemp+2
  2304  000064  C04B  F04F         	movff	??_Button1+15,btemp+1
  2305  000068  C04A  F04E         	movff	??_Button1+14,btemp
  2306  00006C  C049  FFF5         	movff	??_Button1+13,tablat
  2307  000070  C048  FFF8         	movff	??_Button1+12,tblptru
  2308  000074  C047  FFF7         	movff	??_Button1+11,tblptrh
  2309  000078  C046  FFF6         	movff	??_Button1+10,tblptrl
  2310  00007C  C045  FFF4         	movff	??_Button1+9,prodh
  2311  000080  C044  FFF3         	movff	??_Button1+8,prodl
  2312  000084  C043  FFDA         	movff	??_Button1+7,fsr2h
  2313  000088  C042  FFD9         	movff	??_Button1+6,fsr2l
  2314  00008C  C041  FFE2         	movff	??_Button1+5,fsr1h
  2315  000090  C040  FFE1         	movff	??_Button1+4,fsr1l
  2316  000094  C03F  FFEA         	movff	??_Button1+3,fsr0h
  2317  000098  C03E  FFE9         	movff	??_Button1+2,fsr0l
  2318  00009C  C03D  FFFB         	movff	??_Button1+1,pclatu
  2319  0000A0  C03C  FFFA         	movff	??_Button1,pclath
  2320  0000A4  924E               	bcf	btemp,1,c	;clear compiler interrupt flag (level 2)
  2321  0000A6  0011               	retfie		f
  2322  0000A8                     __end_of_Button1:
  2323                           	opt stack 0
  2324                           pclatu	equ	0xFFB
  2325                           pclath	equ	0xFFA
  2326                           tblptru	equ	0xFF8
  2327                           tblptrh	equ	0xFF7
  2328                           tblptrl	equ	0xFF6
  2329                           tablat	equ	0xFF5
  2330                           prodh	equ	0xFF4
  2331                           prodl	equ	0xFF3
  2332                           intcon	equ	0xFF2
  2333                           intcon2	equ	0xFF1
  2334                           postinc0	equ	0xFEE
  2335                           fsr0h	equ	0xFEA
  2336                           fsr0l	equ	0xFE9
  2337                           wreg	equ	0xFE8
  2338                           postdec1	equ	0xFE5
  2339                           plusw1	equ	0xFE3
  2340                           fsr1h	equ	0xFE2
  2341                           fsr1l	equ	0xFE1
  2342                           plusw2	equ	0xFDB
  2343                           fsr2h	equ	0xFDA
  2344                           fsr2l	equ	0xFD9
  2345                           status	equ	0xFD8
  2346                           pclatu	equ	0xFFB
  2347                           pclath	equ	0xFFA
  2348                           tblptru	equ	0xFF8
  2349                           tblptrh	equ	0xFF7
  2350                           tblptrl	equ	0xFF6
  2351                           tablat	equ	0xFF5
  2352                           prodh	equ	0xFF4
  2353                           prodl	equ	0xFF3
  2354                           intcon	equ	0xFF2
  2355                           intcon2	equ	0xFF1
  2356                           postinc0	equ	0xFEE
  2357                           fsr0h	equ	0xFEA
  2358                           fsr0l	equ	0xFE9
  2359                           wreg	equ	0xFE8
  2360                           postdec1	equ	0xFE5
  2361                           plusw1	equ	0xFE3
  2362                           fsr1h	equ	0xFE2
  2363                           fsr1l	equ	0xFE1
  2364                           plusw2	equ	0xFDB
  2365                           fsr2h	equ	0xFDA
  2366                           fsr2l	equ	0xFD9
  2367                           status	equ	0xFD8
  2368                           
  2369                           	psect	rparam
  2370  0000                     pclatu	equ	0xFFB
  2371                           pclath	equ	0xFFA
  2372                           tblptru	equ	0xFF8
  2373                           tblptrh	equ	0xFF7
  2374                           tblptrl	equ	0xFF6
  2375                           tablat	equ	0xFF5
  2376                           prodh	equ	0xFF4
  2377                           prodl	equ	0xFF3
  2378                           intcon	equ	0xFF2
  2379                           intcon2	equ	0xFF1
  2380                           postinc0	equ	0xFEE
  2381                           fsr0h	equ	0xFEA
  2382                           fsr0l	equ	0xFE9
  2383                           wreg	equ	0xFE8
  2384                           postdec1	equ	0xFE5
  2385                           plusw1	equ	0xFE3
  2386                           fsr1h	equ	0xFE2
  2387                           fsr1l	equ	0xFE1
  2388                           plusw2	equ	0xFDB
  2389                           fsr2h	equ	0xFDA
  2390                           fsr2l	equ	0xFD9
  2391                           status	equ	0xFD8
  2392                           
  2393                           	psect	temp
  2394  00004E                     btemp:
  2395                           	opt stack 0
  2396  00004E                     	ds	1
  2397  0000                     int$flags	set	btemp
  2398  0000                     wtemp6	set	btemp+1
  2399                           pclatu	equ	0xFFB
  2400                           pclath	equ	0xFFA
  2401                           tblptru	equ	0xFF8
  2402                           tblptrh	equ	0xFF7
  2403                           tblptrl	equ	0xFF6
  2404                           tablat	equ	0xFF5
  2405                           prodh	equ	0xFF4
  2406                           prodl	equ	0xFF3
  2407                           intcon	equ	0xFF2
  2408                           intcon2	equ	0xFF1
  2409                           postinc0	equ	0xFEE
  2410                           fsr0h	equ	0xFEA
  2411                           fsr0l	equ	0xFE9
  2412                           wreg	equ	0xFE8
  2413                           postdec1	equ	0xFE5
  2414                           plusw1	equ	0xFE3
  2415                           fsr1h	equ	0xFE2
  2416                           fsr1l	equ	0xFE1
  2417                           plusw2	equ	0xFDB
  2418                           fsr2h	equ	0xFDA
  2419                           fsr2l	equ	0xFD9
  2420                           status	equ	0xFD8


Data Sizes:
    Strings     0
    Constant    584
    Data        11
    BSS         101
    Persistent  0
    Stack       0

Auto Spaces:
    Space          Size  Autos    Used
    COMRAM           94     18      77
    BANK0           160     17      70
    BANK1           256      0       0
    BANK2           239      0       0

Pointer List with Targets:

    S926PhaseTemperature$PhaseTemperature	PTR FTN(struct .,)struct . size(2) Largest target is 3
		 -> exitTemperature(), showTemperature(), 

    phasesTemperature.PhaseTemperature	PTR FTN(struct .,)struct . size(2) Largest target is 3
		 -> exitTemperature(), showTemperature(), 

    S902PhaseFrequency$PhaseFrequency	PTR FTN(struct .,)struct . size(2) Largest target is 3
		 -> exitFrequency(), showFrequency(), 

    phasesFrequency.PhaseFrequency	PTR FTN(struct .,)struct . size(2) Largest target is 3
		 -> exitFrequency(), showFrequency(), 

    S873PhasePhaseAngle$PhasePhaseAngle	PTR FTN(struct .,)struct . size(2) Largest target is 3
		 -> exitPhaseAngle(), viPhaseAngle(), phPhaseAngle(), 

    phasesPhaseAngle.PhasePhaseAngle	PTR FTN(struct .,)struct . size(2) Largest target is 3
		 -> exitPhaseAngle(), viPhaseAngle(), phPhaseAngle(), 

    S848PhasePowerFactor$PhasePowerFactor	PTR FTN(struct .,)struct . size(2) Largest target is 2
		 -> exitPowerFactor(), phPowerFactor(), 

    phasesPowerFactor.PhasePowerFactor	PTR FTN(struct .,)struct . size(2) Largest target is 2
		 -> exitPowerFactor(), phPowerFactor(), 

    S820PhaseRmsVI$PhaseRmsVI	PTR FTN(struct .,)struct . size(2) Largest target is 3
		 -> exitRmsVI(), neutralRmsVI(), phRmsVI(), 

    phasesRmsVI.PhaseRmsVI	PTR FTN(struct .,)struct . size(2) Largest target is 3
		 -> exitRmsVI(), neutralRmsVI(), phRmsVI(), 

    S790PhasePower2$PhasePower2	PTR FTN(struct .,)struct . size(2) Largest target is 3
		 -> exitPower2(), phPower2(), fhPower2(), 

    phasesPower2.PhasePower2	PTR FTN(struct .,)struct . size(2) Largest target is 3
		 -> exitPower2(), phPower2(), fhPower2(), 

    S755PhasePower1$PhasePower1	PTR FTN(struct .,)struct . size(2) Largest target is 3
		 -> exitPower1(), vectorPower1(), phPower1(), typesPower1(), 

    phasesPower1.PhasePower1	PTR FTN(struct .,)struct . size(2) Largest target is 3
		 -> exitPower1(), vectorPower1(), phPower1(), typesPower1(), 

    S719PhaseMainMenu$PhaseMainMenu	PTR FTN(struct .,)struct . size(2) Largest target is 2
		 -> sendData(), viewMenu(), generalView(), initialLoad(), 

    phasesMainMenu.PhaseMainMenu	PTR FTN(struct .,)struct . size(2) Largest target is 2
		 -> sendData(), viewMenu(), generalView(), initialLoad(), 

    S45State$stateFunction	PTR FTN()enum E3246 size(2) Largest target is 1
		 -> stateTemperature(), stateFrequency(), statePhaseAngle(), statePowerFactor(), 
		 -> stateRmsVI(), statePower2(), statePower1(), stateMainMenu(), 

    StateProgram.stateFunction	PTR FTN()enum E3246 size(2) Largest target is 1
		 -> stateTemperature(), stateFrequency(), statePhaseAngle(), statePowerFactor(), 
		 -> stateRmsVI(), statePower2(), statePower1(), stateMainMenu(), 


Critical Paths under _main in COMRAM

    None.

Critical Paths under _Button1 in COMRAM

    None.

Critical Paths under _main in BANK0

    _main->_GPIO_dataDirectionPIN
    _ButtonInt_config->_GPIO_dataDirectionPIN

Critical Paths under _Button1 in BANK0

    None.

Critical Paths under _main in BANK1

    None.

Critical Paths under _Button1 in BANK1

    None.

Critical Paths under _main in BANK2

    None.

Critical Paths under _Button1 in BANK2

    None.

Call Graph Tables:

 ---------------------------------------------------------------------------------
 (Depth) Function   	        Calls       Base Space   Used Autos Params    Refs
 ---------------------------------------------------------------------------------
 (0) _main                                                12    12      0    3993
                                              5 BANK0     12    12      0
                   _ButtonInt_config
                      _GPIO_clearPIN
              _GPIO_dataDirectionPIN
                        _GPIO_setPIN
                   _GPIO_sourceClock
                         _getButton1
                         _getButton2
 ---------------------------------------------------------------------------------
 (1) _getButton2                                           0     0      0       0
 ---------------------------------------------------------------------------------
 (1) _getButton1                                           0     0      0       0
 ---------------------------------------------------------------------------------
 (1) _GPIO_sourceClock                                     1     1      0      31
                                              0 BANK0      1     1      0
 ---------------------------------------------------------------------------------
 (1) _GPIO_setPIN                                          4     3      1     394
                                              0 BANK0      4     3      1
 ---------------------------------------------------------------------------------
 (1) _GPIO_clearPIN                                        4     3      1     484
                                              0 BANK0      4     3      1
 ---------------------------------------------------------------------------------
 (1) _ButtonInt_config                                     0     0      0    1539
              _GPIO_dataDirectionPIN
 ---------------------------------------------------------------------------------
 (1) _GPIO_dataDirectionPIN                                5     3      2    1539
                                              0 BANK0      5     3      2
 ---------------------------------------------------------------------------------
 Estimated maximum stack depth 1
 ---------------------------------------------------------------------------------
 (Depth) Function   	        Calls       Base Space   Used Autos Params    Refs
 ---------------------------------------------------------------------------------
 (3) _Button1                                             18    18      0       0
                                              0 COMRAM    18    18      0
 ---------------------------------------------------------------------------------
 Estimated maximum stack depth 3
 ---------------------------------------------------------------------------------

 Call Graph Graphs:

 _main (ROOT)
   _ButtonInt_config
     _GPIO_dataDirectionPIN
   _GPIO_clearPIN
   _GPIO_dataDirectionPIN
   _GPIO_setPIN
   _GPIO_sourceClock
   _getButton1
   _getButton2

 _Button1 (ROOT)

 Address spaces:
Name               Size   Autos  Total    Cost      Usage
BIGRAM             2EE      0       0      10        0.0%
EEDATA             100      0       0       0        0.0%
BITBANK1           100      0       0       6        0.0%
BANK1              100      0       0       7        0.0%
BITBANK2            EF      0       0       8        0.0%
BANK2               EF      0       0       9        0.0%
BITBANK0            A0      0       0       3        0.0%
BANK0               A0     11      46       4       43.8%
BITCOMRAM           5E      0       0       0        0.0%
COMRAM              5E     12      4D       1       81.9%
BITSFR_5             0      0       0     200        0.0%
SFR_5                0      0       0     200        0.0%
BITSFR_4             0      0       0     200        0.0%
SFR_4                0      0       0     200        0.0%
BITSFR_3             0      0       0     200        0.0%
SFR_3                0      0       0     200        0.0%
BITSFR_2             0      0       0     200        0.0%
SFR_2                0      0       0     200        0.0%
BITSFR_1             0      0       0     200        0.0%
SFR_1                0      0       0     200        0.0%
BITSFR               0      0       0     200        0.0%
SFR                  0      0       0     200        0.0%
STACK                0      0       0       2        0.0%
NULL                 0      0       0       0        0.0%
ABS                  0      0      93       5        0.0%
DATA                 0      0      93      11        0.0%
CODE                 0      0       0       0        0.0%


Microchip Technology PIC18 Macro Assembler V1.44 build -154322312 
Symbol Table                                                                                   Fri Jun 08 02:40:56 2018

                     _stateMainMenu 000000                         _statePower1 000000  
                       _statePower2 000000                    GPIO_clearPIN@pin 008A  
                       _SSPSTATbits 000FC7                                  l41 02C6  
                                l42 02DC                                  l70 0310  
                                l71 0316                                  l80 0108  
                                l64 0322                                  l72 031A  
                                l81 00B2                                  l73 031E  
                                l65 02FA                                  l91 013C  
                                l83 00D0                                  l67 0300  
                                l92 0158                                  l84 00EC  
                                l68 0306                                  l69 030C  
                                l78 018A                                  l88 0174  
                                l89 0120              __size_of_GPIO_clearPIN 007A  
                      __CFG_CP0$OFF 000000                        __CFG_CP1$OFF 000000  
                               l130 0256                                 l126 0272  
                               l135 01FE                                 l127 021C  
                               l136 01A2                                 l129 023A  
                               l138 01C2                                 l139 01E0  
                               l614 03E4                        __CFG_CPB$OFF 000000  
                    _stateFrequency 000000                        __CFG_CPD$OFF 000000  
                               wreg 000FE8                        __CFG_IESO$ON 000000  
                      __CFG_LVP$OFF 000000             phPower1@currentPower1_2 0008  
                              u1124 00C4                                u1204 01B4  
                              u1125 00C0                                u1205 01B0  
                              u1134 00E0                                u1214 01D2  
                              u1135 00DC                                u1215 01CE  
                              u1311 02A4                                u1144 00FC  
                              u1224 01F0                                u1145 00F8  
                              u1225 01EC                                u1154 0130  
                              u1155 012C                                u1164 014C  
                              u1244 022E                                u1165 0148  
                              u1245 022A                                u1174 0168  
                              u1254 024A                                u1175 0164  
                              u1255 0246                                u1264 0266  
                              u1265 0262                       __CFG_FCMEN$ON 000000  
                      ?_GPIO_setPIN 008A                                _main 028A  
exitTemperature@currentTemperature2 0060                                fsr0h 000FEA  
                              fsr1h 000FE2                                fsr2h 000FDA  
                              fsr0l 000FE9                                fsr1l 000FE1  
                              fsr2l 000FD9                                btemp 004E  
                     __CFG_BOREN$ON 000000                                prodh 000FF4  
                              prodl 000FF3                                start 00A8  
                   _statePhaseAngle 000000                        ___param_bank 000000  
                   __end_of_Button1 00A8                  phRmsVI@currentRms1 007B  
                  _ButtonInt_config 039E                               ?_main 003C  
                             _ASCII 1AB7                               i2l604 005C  
                             _SPBRG 000FAF                               _PORTA 000F80  
                             _PORTB 000F81                               _PORTC 000F82  
                             _TRISA 000F92                               _TRISB 000F93  
                             _TRISC 000F94                               _TXREG 000FAD  
                     __CFG_WRT0$OFF 000000                       __CFG_WRT1$OFF 000000  
                    __CFG_EBTR0$OFF 000000                      __CFG_EBTR1$OFF 000000  
                     __CFG_WRTB$OFF 000000                       __CFG_WRTC$OFF 000000  
                    GPIO_setPIN@pin 008A                       __CFG_WRTD$OFF 000000  
                    __CFG_EBTRB$OFF 000000            viewMenu@currentMainMenu3 0026  
                             pclath 000FFA                         _typesPower1 000000  
                             tablat 000FF5                       _GPIO_clearPIN 019C  
                             plusw1 000FE3                               plusw2 000FDB  
                             status 000FD8                               wtemp6 004F  
           phPower2@currentPower2_2 0081           __size_of_GPIO_sourceClock 0064  
                    __CFG_MCLRE$OFF 000000                     __initialization 0358  
                    __CFG_HPOL$HIGH 000000                         _FlagButton1 0032  
                       _FlagButton2 0031                         _FlagButton3 0030  
                      __end_of_main 02F4                      __CFG_OSC$IRCIO 000000  
                    __CFG_LPOL$HIGH 000000                              ??_main 008F  
                     __activetblptr 000002      phPhaseAngle@currentPhaseAngle1 0072  
                     main@arrayTest 008F                              _ANSEL0 000FB8  
                  generalView@F3411 1CB3                    generalView@F3413 1CCD  
                  generalView@F3415 1CEB                    generalView@F3409 1CA7  
    exitFrequency@currentFrequency2 0066                      ?_GPIO_clearPIN 008A  
                            _INT0IF 007F91                      __CFG_WDTEN$OFF 000000  
                            _OSCCON 000FD3                      __CFG_WINEN$OFF 000000  
                            _SSPCON 000FC6                              _SSPBUF 000FC9  
                     _phPowerFactor 000000                           ??_Button1 003C  
              generalView@lockClear 0033         initialLoad@currentMainMenu1 002A  
    __size_of_GPIO_dataDirectionPIN 00F0                      __CFG_STVREN$ON 000000  
     __end_of_GPIO_dataDirectionPIN 019C                              clear_0 037E  
                            clear_1 038A                       sendData@F3422 1CE6  
                      __mediumconst 1AB6                              tblptrh 000FF7  
                            tblptrl 000FF6                              tblptru 000FF8  
                  _stateTemperature 000000                          __accesstop 0060  
           __end_of__initialization 0390                       __end_of_ASCII 1C97  
                     ___rparam_used 000001                __size_of_GPIO_setPIN 0074  
                  _statePowerFactor 000000                     __CFG_T1OSCMX$ON 000000  
                   stateRmsVI@phase 0038                 GPIO_setPIN@portName 008D  
           neutralRmsVI@currentRms2 0078                      __pcstackCOMRAM 003C  
                      __pidataBANK0 03EC                   _phasesTemperature 1CF0  
                     _exitFrequency 000000               GPIO_clearPIN@portName 008D  
                   _exitTemperature 000000                     ??_GPIO_clearPIN 008B  
  exitPhaseAngle@currentPhaseAngle3 006C                   _phasesPowerFactor 1CF8  
                        __pbssBANK0 0060            __end_of_ButtonInt_config 03DC  
                  _GPIO_sourceClock 02F4                     _exitPowerFactor 000000  
                   __CFG_WDPS$32768 000000                          _getButton1 03F8  
                        _getButton2 03DC           __end_of_phasesTemperature 1CF4  
         __end_of_phasesPowerFactor 1CFC                             _SSPSTAT 000FC7  
             stateTemperature@phase 0034      viPhaseAngle@currentPhaseAngle2 006F  
                   __CFG_PWMPIN$OFF 000000                             _Button1 0008  
                   __CFG_PWRTEN$OFF 000000                             __Hparam 0000  
                           __Lparam 0000              statePower1@phasePower1 001D  
          __end_ofgeneralView@F3411 1CBD            __end_ofgeneralView@F3413 1CD4  
          __end_ofgeneralView@F3415 1CF0            __end_ofgeneralView@F3409 1CB3  
     GPIO_dataDirectionPIN@portName 008E                             __pcinit 0358  
           fhPower2@currentPower2_1 0084                          _exitPower1 000000  
                        _exitPower2 000000                             __ramtop 0300  
                           __ptext0 028A                             __ptext1 03DC  
                           __ptext2 03F8                             __ptext3 02F4  
                           __ptext4 0216                             __ptext5 019C  
                           __ptext6 039E                             __ptext7 00AC  
        typesPower1@currentPower1_1 000B                             _phRmsVI 000000  
                   _showTemperature 000000                  __end_of_SPI_Config 1CFF  
              end_of_initialization 0390      showFrequency@currentFrequency1 0069  
                     __Lmediumconst 1AB6              stateMainMenu@phaseMain 002E  
               GPIO_sourceClock@clk 008A                           _RCSTAbits 000FAB  
                           postdec1 000FE5                             postinc0 000FEE  
            statePower2@phasePower2 001A                         ?_getButton1 003C  
                       ?_getButton2 003C                           _PORTAbits 000F80  
              __end_of_phasesPower1 1CC5                __end_of_phasesPower2 1CE6  
              exitRmsVI@currentRms3 0075      statePhaseAngle@phasePhaseAngle 0014  
                         _TRISCbits 000F94                          _stateRmsVI 000000  
                         _TXSTAbits 000FAC                        _phPhaseAngle 000000  
  stateTemperature@phaseTemperature 000E                         _BAUDCTLbits 000FAA  
             _GPIO_dataDirectionPIN 00AC        stateFrequency@phaseFrequency 0011  
          __end_of_GPIO_sourceClock 0358                 start_initialization 0358  
              stateRmsVI@phaseRmsVI 0017                 __size_of_getButton1 0004  
               __size_of_getButton2 0010                       ??_GPIO_setPIN 008B  
                 ?_ButtonInt_config 003C                    _phasesPhaseAngle 1CD4  
                ??_ButtonInt_config 008F                      _exitPhaseAngle 000000  
              statePhaseAngle@phase 0036                         __pdataBANK0 009B  
       generalView@currentMainMenu2 0028                         __pbssCOMRAM 0001  
                     __pcstackBANK0 008A               __end_of_GPIO_clearPIN 0216  
                  statePower1@phase 003A                    statePower2@phase 0039  
                          ?_Button1 003C                 __end_of_GPIO_setPIN 028A  
                         __pintcode 0008                       __pmediumconst 1AB6  
            ?_GPIO_dataDirectionPIN 008A                __end_of_StateProgram 1CA7  
                         _exitRmsVI 000000                         _generalView 000000  
               stateFrequency@phase 0035                        _phasesPower1 1CBD  
                      _phasesPower2 1CE0            sendData@currentMainMenu4 0024  
                          _PIR1bits 000F9E                           main@F3294 009B  
                      ??_getButton1 008A                        ??_getButton2 008A  
       vectorPower1@currentPower1_3 0005                 __end_of_phasesRmsVI 1CE0  
                      _viPhaseAngle 000000    statePowerFactor@phasePowerFactor 002C  
showTemperature@currentTemperature1 0063               __end_ofsendData@F3422 1CEB  
                    expBASE10@value 0001                         _INTCON2bits 000FF1  
                         copy_data0 036C                     _phasesFrequency 1CF4  
                __end_of_getButton1 03FC                  __end_of_getButton2 03EC  
                       _GPIO_setPIN 0216                            __Hrparam 0000  
                  __size_of_Button1 00A0                        _neutralRmsVI 000000  
                          __Lrparam 0000                          _ANSEL0bits 000FB8  
          __end_of_phasesPhaseAngle 1CDA                       _showFrequency 000000  
                 ?_GPIO_sourceClock 003C                            _fhPower2 000000  
                       _initialLoad 000000                  ??_GPIO_sourceClock 008A  
  phPowerFactor@currentPowerFactor1 0022  exitPowerFactor@currentPowerFactor2 0020  
                          _phPower1 000000                            _phPower2 000000  
                     __size_of_main 006A                            _sendData 000000  
                       _phasesRmsVI 1CDA                            _viewMenu 000000  
                          int$flags 004E                            main@test 009A  
         __size_of_ButtonInt_config 003E                      _phasesMainMenu 1CC5  
                        _INTCONbits 000FF2             __end_of_phasesFrequency 1CF8  
                stateMainMenu@phase 003B           exitPower1@currentPower1_4 0087  
        GPIO_dataDirectionPIN@state 008B                            intlevel2 0000  
                      _vectorPower1 000000               statePowerFactor@phase 0037  
          GPIO_dataDirectionPIN@pin 008A                        _StateProgram 1C97  
           ??_GPIO_dataDirectionPIN 008C              __end_of_phasesMainMenu 1CCD  
         exitPower2@currentPower2_3 007E                          _SSPCONbits 000FC6  
                        _SPI_Config 1CFC  
