Microchip MPLAB XC8 Compiler V1.44 ()

Linker command line:

-W-3 --edf=C:\Program Files (x86)\Microchip\xc8\v1.44\dat\en_msgs.txt -cs \
  -h+dist/default/production\Project_Measurement.X.production.sym \
  --cmf=dist/default/production\Project_Measurement.X.production.cmf -z \
  -Q18F2331 -oC:\Users\ANDRES~1\AppData\Local\Temp\s1pp0.2 \
  -Mdist/default/production/Project_Measurement.X.production.map -E1 \
  -ver=XC8 -ASTACK=095h-02ffh -pstack=STACK -ACODE=00h-01FFFh \
  -ACONST=00h-01FFFh -ASMALLCONST=0300h-03FFhx29 -AMEDIUMCONST=0300h-01FFFh \
  -ACOMRAM=01h-05Fh -AABS1=00h-02FFh -ABIGRAM=01h-02FFh \
  -ARAM=060h-0FFh,0100h-01FFhx2 -ABANK0=060h-0FFh -ABANK1=0100h-01FFh \
  -ABANK2=0200h-02FFh -ASFR=0F60h-0FFFh \
  -preset_vec=00h,intcode=08h,intcodelo,powerup,init -pramtop=0300h \
  -psmallconst=SMALLCONST -pmediumconst=MEDIUMCONST -pconst=CONST \
  -AFARRAM=00h-00h -ACONFIG=0300000h-030000Dh -pconfig=CONFIG \
  -AIDLOC=0200000h-0200007h -pidloc=IDLOC -AEEDATA=0F00000h-0F000FFh \
  -peeprom_data=EEDATA \
  -prdata=COMRAM,nvrram=COMRAM,nvbit=COMRAM,rbss=COMRAM,rbit=COMRAM \
  -pfarbss=FARRAM,fardata=FARRAM,nvFARRAM=FARRAM \
  -pintsave_regs=BIGRAM,bigbss=BIGRAM,bigdata=BIGRAM -pbss=RAM \
  -pidata=CODE,irdata=CODE,ibigdata=CODE,ifardata=CODE -prparam=COMRAM \
  C:\Users\ANDRES~1\AppData\Local\Temp\s1pp0.obj \
  dist/default/production\Project_Measurement.X.production.obj 

Object code version is 3.11

Machine type is 18F2331

Call graph: (short form)




                Name                               Link     Load   Length Selector   Space Scale
C:\Users\ANDRES~1\AppData\Local\Temp\s1pp0.obj
                init                                 A2       A2        4        4       0
                reset_vec                             0        0        4        0       0
                idloc                            200000   200000        8   200000       0
                config                           300000   300000        E   300000       0
dist/default/production\Project_Measurement.X.production.obj
                intcode                               8        8       9A        4       0
                temp                                 4E       4E        1        1       1
                mediumconst                        1DDE     1DDE      222      EEF       0
                text45                               A6       A6       F0        4       0
                text44                              98E      98E       18        4       0
                text43                              3FC      3FC       64        4       0
                text42                              29E      29E       7A        4       0
                text41                              318      318       74        4       0
                text40                              8C8      8C8       1E        4       0
                text39                              852      852       2E        4       0
                text38                              81E      81E       34        4       0
                text37                              196      196       86        4       0
                text36                              76C      76C       42        4       0
                text35                              7EA      7EA       34        4       0
                text34                              720      720       4C        4       0
                text33                              21C      21C       82        4       0
                text32                              976      976       18        4       0
                text31                              A82      A82       16        4       0
                text30                              8A6      8A6       22        4       0
                text29                              7AE      7AE       3C        4       0
                text28                              ACE      ACE       12        4       0
                text27                              A6C      A6C       16        4       0
                text26                              ABC      ABC       12        4       0
                text25                              95E      95E       18        4       0
                text24                              946      946       18        4       0
                text23                              A56      A56       16        4       0
                text22                              A40      A40       16        4       0
                text21                              A2A      A2A       16        4       0
                text20                              A14      A14       16        4       0
                text19                              9FE      9FE       16        4       0
                text18                              92E      92E       18        4       0
                text17                              9E8      9E8       16        4       0
                text16                              9D2      9D2       16        4       0
                text15                              AAA      AAA       12        4       0
                text14                              A98      A98       12        4       0
                text13                              916      916       18        4       0
                text12                              8FE      8FE       18        4       0
                text11                              9BC      9BC       16        4       0
                text10                              8E6      8E6       18        4       0
                text9                               9A6      9A6       16        4       0
                text8                               622      622       5A        4       0
                text7                               6CE      6CE       52        4       0
                text6                               5C8      5C8       5A        4       0
                text5                               56E      56E       5A        4       0
                text4                               514      514       5A        4       0
                text3                               67C      67C       52        4       0
                text2                               4BA      4BA       5A        4       0
                text1                               460      460       5A        4       0
                text0                               38C      38C       70        4       0
                cstackCOMRAM                         3C       3C       12        1       1
                cstackBANK0                          84       84       11       60       1
                bssBANK0                             60       60       24       60       1
                bssCOMRAM                             1        1       3B        1       1
                cinit                               880      880       26        4       0

TOTAL           Name                               Link     Load   Length     Space
        CLASS   STACK          

        CLASS   CODE           
                intcode                               8        8       9A         0
                init                                 A2       A2        4         0
                reset_vec                             0        0        4         0
                text45                               A6       A6       F0         0
                text44                              98E      98E       18         0
                text43                              3FC      3FC       64         0
                text42                              29E      29E       7A         0
                text41                              318      318       74         0
                text40                              8C8      8C8       1E         0
                text39                              852      852       2E         0
                text38                              81E      81E       34         0
                text37                              196      196       86         0
                text36                              76C      76C       42         0
                text35                              7EA      7EA       34         0
                text34                              720      720       4C         0
                text33                              21C      21C       82         0
                text32                              976      976       18         0
                text31                              A82      A82       16         0
                text30                              8A6      8A6       22         0
                text29                              7AE      7AE       3C         0
                text28                              ACE      ACE       12         0
                text27                              A6C      A6C       16         0
                text26                              ABC      ABC       12         0
                text25                              95E      95E       18         0
                text24                              946      946       18         0
                text23                              A56      A56       16         0
                text22                              A40      A40       16         0
                text21                              A2A      A2A       16         0
                text20                              A14      A14       16         0
                text19                              9FE      9FE       16         0
                text18                              92E      92E       18         0
                text17                              9E8      9E8       16         0
                text16                              9D2      9D2       16         0
                text15                              AAA      AAA       12         0
                text14                              A98      A98       12         0
                text13                              916      916       18         0
                text12                              8FE      8FE       18         0
                text11                              9BC      9BC       16         0
                text10                              8E6      8E6       18         0
                text9                               9A6      9A6       16         0
                text8                               622      622       5A         0
                text7                               6CE      6CE       52         0
                text6                               5C8      5C8       5A         0
                text5                               56E      56E       5A         0
                text4                               514      514       5A         0
                text3                               67C      67C       52         0
                text2                               4BA      4BA       5A         0
                text1                               460      460       5A         0
                text0                               38C      38C       70         0
                cinit                               880      880       26         0

        CLASS   CONST          

        CLASS   SMALLCONST     

        CLASS   MEDIUMCONST    
                mediumconst                        1DDE     1DDE      222         0

        CLASS   COMRAM         
                temp                                 4E       4E        1         1
                cstackCOMRAM                         3C       3C       12         1
                bssCOMRAM                             1        1       3B         1

        CLASS   ABS1           

        CLASS   BIGRAM         

        CLASS   RAM            

        CLASS   BANK0          
                cstackBANK0                          84       84       11         1
                bssBANK0                             60       60       24         1

        CLASS   BANK1          

        CLASS   BANK2          

        CLASS   SFR            

        CLASS   FARRAM         

        CLASS   CONFIG         
                config                           300000   300000        E         0

        CLASS   IDLOC          
                idloc                            200000   200000        8         0

        CLASS   EEDATA         



SEGMENTS        Name                           Load    Length   Top    Selector   Space  Class

                reset_vec                      000000  000004  000004         0       0  CODE    
                bssCOMRAM                      000001  00004E  00004F         1       1  COMRAM  
                intcode                        000008  000AD8  000AE0         4       0  CODE    
                bssBANK0                       000060  000035  000095        60       1  BANK0   
                mediumconst                    001DDE  000222  002000       EEF       0  MEDIUMCO
                idloc                          200000  000008  200008    200000       0  IDLOC   
                config                         300000  00000E  30000E    300000       0  CONFIG  


UNUSED ADDRESS RANGES

        Name                Unused          Largest block    Delta
        BANK0            000095-0000FF               6B
        BANK1            000100-0001FF              100
        BANK2            000200-0002FF              100
        BIGRAM           00004F-00005F               11
                         000095-0002FF              26B
        CODE             000004-000007                4
                         000AE0-001DDD             12FE
        COMRAM           00004F-00005F               11
        CONST            000004-000007                4
                         000AE0-001DDD             12FE
        EEDATA           F00000-F000FF              100
        MEDIUMCONST      000AE0-001DDD             12FE
        RAM              000095-0002FF              100
        SFR              000F60-000FFF               A0
        SMALLCONST       000AE0-001DDD              100
        STACK            000095-0002FF              26B

                                  Symbol Table

?_exitFrequency                       cstackBANK0  000084
?_exitPhaseAngle                      cstackBANK0  000084
?_exitPower1                          cstackBANK0  000084
?_exitPower2                          cstackBANK0  000084
?_exitPowerFactor                     cstackBANK0  000084
?_exitRmsVI                           cstackBANK0  000084
?_exitTemperature                     cstackBANK0  000084
?_fhPower2                            cstackBANK0  000084
?_generalView                         cstackBANK0  00008E
?_initialLoad                         cstackBANK0  00008E
?_neutralRmsVI                        cstackBANK0  000084
?_phPhaseAngle                        cstackBANK0  000084
?_phPower1                            cstackBANK0  000084
?_phPower2                            cstackBANK0  000084
?_phPowerFactor                       cstackBANK0  000084
?_phRmsVI                             cstackBANK0  000084
?_showFrequency                       cstackBANK0  000084
?_showTemperature                     cstackBANK0  000084
?_typesPower1                         cstackBANK0  000084
?_vectorPower1                        cstackBANK0  000084
?_viPhaseAngle                        cstackBANK0  000084
?_viewMenu                            cstackBANK0  00008E
GPIO_clearPIN@pin                     cstackBANK0  000084
GPIO_clearPIN@portName                cstackBANK0  000087
GPIO_dataDirectionPIN@pin             cstackBANK0  000084
GPIO_dataDirectionPIN@portName        cstackBANK0  000088
GPIO_dataDirectionPIN@state           cstackBANK0  000085
GPIO_setPIN@pin                       cstackBANK0  000084
GPIO_setPIN@portName                  cstackBANK0  000087
GPIO_sourceClock@clk                  cstackBANK0  000084
LCDNokia_clear@index                  cstackBANK0  00008C
LCDNokia_gotoXY@x                     cstackBANK0  00008B
LCDNokia_gotoXY@y                     cstackBANK0  00008A
LCDNokia_writeByte@DataOrCmd          cstackBANK0  000089
LCDNokia_writeByte@data               cstackBANK0  000088
LCD_delay@counter                     cstackBANK0  000084
SPI_enableClock@cpol                  cstackBANK0  000084
SPI_enableClock@phase                 cstackBANK0  000085
SPI_enablePins@serial                 cstackBANK0  000084
SPI_init@SPI_Config                   cstackBANK0  000086
SPI_write@data                        cstackBANK0  000085
SPI_write@success                     cstackBANK0  000084
UART_init@baudRate                    cstackBANK0  000089
_ANSEL0                               (abs)        000FB8
_ASCII                                mediumconst  001DDF
_BAUDCTLbits                          (abs)        000FAA
_Button1                              intcode      000008
_ButtonInt_config                     text44       00098E
_GIE                                  (abs)        007F97
_GPIO_clearPIN                        text42       00029E
_GPIO_dataDirectionPIN                text45       0000A6
_GPIO_setPIN                          text41       000318
_GPIO_sourceClock                     text43       0003FC
_INT0IE                               (abs)        007F94
_INT0IF                               (abs)        007F91
_LCDNokia_clear                       text29       0007AE
_LCDNokia_gotoXY                      text30       0008A6
_LCDNokia_init                        text37       000196
_LCDNokia_writeByte                   text39       000852
_LCD_delay                            text38       00081E
_OSCCON                               (abs)        000FD3
_PORTA                                (abs)        000F80
_PORTB                                (abs)        000F81
_PORTC                                (abs)        000F82
_RCSTAbits                            (abs)        000FAB
_SPBRG                                (abs)        000FAF
_SPI_Config                           mediumconst  001FFB
_SPI_enableClock                      text36       00076C
_SPI_enablePins                       text35       0007EA
_SPI_init                             text34       000720
_SPI_write                            text40       0008C8
_SSPBUF                               (abs)        000FC9
_SSPCON                               (abs)        000FC6
_SSPCONbits                           (abs)        000FC6
_SSPSTAT                              (abs)        000FC7
_SSPSTATbits                          (abs)        000FC7
_StateProgram                         mediumconst  001FBF
_TRISA                                (abs)        000F92
_TRISB                                (abs)        000F93
_TRISC                                (abs)        000F94
_TRISCbits                            (abs)        000F94
_TXREG                                (abs)        000FAD
_TXSTAbits                            (abs)        000FAC
_UART_init                            text33       00021C
__HRAM                                (abs)        000000
__Habs1                               abs1         000000
__Hbank0                              bank0        000000
__Hbank1                              bank1        000000
__Hbank2                              bank2        000000
__Hbigbss                             bigbss       000000
__Hbigdata                            bigdata      000000
__Hbigram                             bigram       000000
__Hbss                                bss          000000
__HbssBANK0                           bssBANK0     000000
__HbssCOMRAM                          bssCOMRAM    000000
__Hcinit                              cinit        000000
__Hclrtext                            clrtext      000000
__Hcomram                             comram       000000
__Hconfig                             config       30000E
__Hconst                              const        000000
__HcstackBANK0                        cstackBANK0  000000
__HcstackCOMRAM                       cstackCOMRAM 000000
__Hdata                               data         000000
__Heeprom_data                        eeprom_data  000000
__Hfarbss                             farbss       000000
__Hfardata                            fardata      000000
__Hibigdata                           ibigdata     000000
__Hidata                              idata        000000
__Hidloc                              idloc        200008
__Hifardata                           ifardata     000000
__Hinit                               init         0000A6
__Hintcode                            intcode      0000A2
__Hintcode_body                       intcode_body 000000
__Hintcodelo                          intcodelo    0000A2
__Hintentry                           intentry     000000
__Hintret                             intret       000000
__Hintsave_regs                       intsave_regs 000000
__Hirdata                             irdata       000000
__Hmediumconst                        mediumconst  002000
__HnvFARRAM                           nvFARRAM     000000
__Hnvbit                              nvbit        000000
__Hnvrram                             nvrram       000000
__Hparam                              rparam       000000
__Hpowerup                            powerup      0000A2
__Hram                                ram          000000
__Hramtop                             ramtop       000300
__Hrbit                               rbit         000000
__Hrbss                               rbss         000000
__Hrdata                              rdata        000000
__Hreset_vec                          reset_vec    000004
__Hrparam                             rparam       000000
__Hsfr                                sfr          000000
__Hsmallconst                         smallconst   000000
__Hspace_0                            (abs)        30000E
__Hspace_1                            (abs)        000095
__Hspace_2                            (abs)        000000
__Hstack                              stack        000000
__Hstruct                             struct       000000
__Htemp                               temp         00004F
__Htext                               text         000000
__Htext0                              text0        000000
__Htext1                              text1        000000
__Htext10                             text10       000000
__Htext11                             text11       000000
__Htext12                             text12       000000
__Htext13                             text13       000000
__Htext14                             text14       000000
__Htext15                             text15       000000
__Htext16                             text16       000000
__Htext17                             text17       000000
__Htext18                             text18       000000
__Htext19                             text19       000000
__Htext2                              text2        000000
__Htext20                             text20       000000
__Htext21                             text21       000000
__Htext22                             text22       000000
__Htext23                             text23       000000
__Htext24                             text24       000000
__Htext25                             text25       000000
__Htext26                             text26       000000
__Htext27                             text27       000000
__Htext28                             text28       000000
__Htext29                             text29       000000
__Htext3                              text3        000000
__Htext30                             text30       000000
__Htext31                             text31       000000
__Htext32                             text32       000000
__Htext33                             text33       000000
__Htext34                             text34       000000
__Htext35                             text35       000000
__Htext36                             text36       000000
__Htext37                             text37       000000
__Htext38                             text38       000000
__Htext39                             text39       000000
__Htext4                              text4        000000
__Htext40                             text40       000000
__Htext41                             text41       000000
__Htext42                             text42       000000
__Htext43                             text43       000000
__Htext44                             text44       000000
__Htext45                             text45       000000
__Htext5                              text5        000000
__Htext6                              text6        000000
__Htext7                              text7        000000
__Htext8                              text8        000000
__Htext9                              text9        000000
__LRAM                                (abs)        000001
__Labs1                               abs1         000000
__Lbank0                              bank0        000000
__Lbank1                              bank1        000000
__Lbank2                              bank2        000000
__Lbigbss                             bigbss       000000
__Lbigdata                            bigdata      000000
__Lbigram                             bigram       000000
__Lbss                                bss          000000
__LbssBANK0                           bssBANK0     000000
__LbssCOMRAM                          bssCOMRAM    000000
__Lcinit                              cinit        000000
__Lclrtext                            clrtext      000000
__Lcomram                             comram       000000
__Lconfig                             config       300000
__Lconst                              const        000000
__LcstackBANK0                        cstackBANK0  000000
__LcstackCOMRAM                       cstackCOMRAM 000000
__Ldata                               data         000000
__Leeprom_data                        eeprom_data  000000
__Lfarbss                             farbss       000000
__Lfardata                            fardata      000000
__Libigdata                           ibigdata     000000
__Lidata                              idata        000000
__Lidloc                              idloc        200000
__Lifardata                           ifardata     000000
__Linit                               init         0000A2
__Lintcode                            intcode      000008
__Lintcode_body                       intcode_body 000000
__Lintcodelo                          intcodelo    0000A2
__Lintentry                           intentry     000000
__Lintret                             intret       000000
__Lintsave_regs                       intsave_regs 000000
__Lirdata                             irdata       000000
__Lmediumconst                        mediumconst  001DDE
__LnvFARRAM                           nvFARRAM     000000
__Lnvbit                              nvbit        000000
__Lnvrram                             nvrram       000000
__Lparam                              rparam       000000
__Lpowerup                            powerup      0000A2
__Lram                                ram          000000
__Lramtop                             ramtop       000300
__Lrbit                               rbit         000000
__Lrbss                               rbss         000000
__Lrdata                              rdata        000000
__Lreset_vec                          reset_vec    000000
__Lrparam                             rparam       000000
__Lsfr                                sfr          000000
__Lsmallconst                         smallconst   000000
__Lspace_0                            (abs)        000000
__Lspace_1                            (abs)        000000
__Lspace_2                            (abs)        000000
__Lstack                              stack        000000
__Lstruct                             struct       000000
__Ltemp                               temp         00004E
__Ltext                               text         000000
__Ltext0                              text0        000000
__Ltext1                              text1        000000
__Ltext10                             text10       000000
__Ltext11                             text11       000000
__Ltext12                             text12       000000
__Ltext13                             text13       000000
__Ltext14                             text14       000000
__Ltext15                             text15       000000
__Ltext16                             text16       000000
__Ltext17                             text17       000000
__Ltext18                             text18       000000
__Ltext19                             text19       000000
__Ltext2                              text2        000000
__Ltext20                             text20       000000
__Ltext21                             text21       000000
__Ltext22                             text22       000000
__Ltext23                             text23       000000
__Ltext24                             text24       000000
__Ltext25                             text25       000000
__Ltext26                             text26       000000
__Ltext27                             text27       000000
__Ltext28                             text28       000000
__Ltext29                             text29       000000
__Ltext3                              text3        000000
__Ltext30                             text30       000000
__Ltext31                             text31       000000
__Ltext32                             text32       000000
__Ltext33                             text33       000000
__Ltext34                             text34       000000
__Ltext35                             text35       000000
__Ltext36                             text36       000000
__Ltext37                             text37       000000
__Ltext38                             text38       000000
__Ltext39                             text39       000000
__Ltext4                              text4        000000
__Ltext40                             text40       000000
__Ltext41                             text41       000000
__Ltext42                             text42       000000
__Ltext43                             text43       000000
__Ltext44                             text44       000000
__Ltext45                             text45       000000
__Ltext5                              text5        000000
__Ltext6                              text6        000000
__Ltext7                              text7        000000
__Ltext8                              text8        000000
__Ltext9                              text9        000000
__S0                                  (abs)        30000E
__S1                                  (abs)        000095
__S2                                  (abs)        000000
___inthi_sp                           stack        000000
___intlo_sp                           stack        000000
___param_bank                         (abs)        000000
___rparam_used                        (abs)        000001
___sp                                 stack        000000
__accesstop                           (abs)        000060
__activetblptr                        (abs)        000002
__end_of_ASCII                        mediumconst  001FBF
__end_of_Button1                      intcode      0000A2
__end_of_ButtonInt_config             text44       0009A6
__end_of_GPIO_clearPIN                text42       000318
__end_of_GPIO_dataDirectionPIN        text45       000196
__end_of_GPIO_setPIN                  text41       00038C
__end_of_GPIO_sourceClock             text43       000460
__end_of_LCDNokia_clear               text29       0007EA
__end_of_LCDNokia_gotoXY              text30       0008C8
__end_of_LCDNokia_init                text37       00021C
__end_of_LCDNokia_writeByte           text39       000880
__end_of_LCD_delay                    text38       000852
__end_of_SPI_Config                   mediumconst  001FFE
__end_of_SPI_enableClock              text36       0007AE
__end_of_SPI_enablePins               text35       00081E
__end_of_SPI_init                     text34       00076C
__end_of_SPI_write                    text40       0008E6
__end_of_StateProgram                 mediumconst  001FCF
__end_of_UART_init                    text33       00029E
__end_of__initialization              cinit        000898
__end_of_exitFrequency                text31       000A98
__end_of_exitPhaseAngle               text23       000A6C
__end_of_exitPower1                   text19       000A14
__end_of_exitPower2                   text16       0009E8
__end_of_exitPowerFactor              text14       000AAA
__end_of_exitRmsVI                    text11       0009D2
__end_of_exitTemperature              text9        0009BC
__end_of_fhPower2                     text17       0009FE
__end_of_generalView                  text26       000ACE
__end_of_initialLoad                  text27       000A82
__end_of_main                         text0        0003FC
__end_of_neutralRmsVI                 text12       000916
__end_of_phPhaseAngle                 text24       00095E
__end_of_phPower1                     text20       000A2A
__end_of_phPower2                     text18       000946
__end_of_phPowerFactor                text15       000ABC
__end_of_phRmsVI                      text13       00092E
__end_of_phasesFrequency              mediumconst  001FF7
__end_of_phasesMainMenu               mediumconst  001FEF
__end_of_phasesPhaseAngle             mediumconst  001FDD
__end_of_phasesPower1                 mediumconst  001FD7
__end_of_phasesPower2                 mediumconst  001FE9
__end_of_phasesPowerFactor            mediumconst  001FFB
__end_of_phasesRmsVI                  mediumconst  001FE3
__end_of_phasesTemperature            mediumconst  001FF3
__end_of_showFrequency                text32       00098E
__end_of_showTemperature              text10       0008FE
__end_of_stateFrequency               text1        0004BA
__end_of_stateMainMenu                text7        000720
__end_of_statePhaseAngle              text2        000514
__end_of_statePower1                  text6        000622
__end_of_statePower2                  text5        0005C8
__end_of_statePowerFactor             text3        0006CE
__end_of_stateRmsVI                   text4        00056E
__end_of_stateTemperature             text8        00067C
__end_of_typesPower1                  text21       000A40
__end_of_vectorPower1                 text22       000A56
__end_of_viPhaseAngle                 text25       000976
__end_of_viewMenu                     text28       000AE0
__initialization                      cinit        000880
__mediumconst                         mediumconst  001DDE
__pbssBANK0                           bssBANK0     000060
__pbssCOMRAM                          bssCOMRAM    000001
__pcinit                              cinit        000880
__pcstackBANK0                        cstackBANK0  000084
__pcstackCOMRAM                       cstackCOMRAM 00003C
__pintcode                            intcode      000008
__pmediumconst                        mediumconst  001DDE
__ptext0                              text0        00038C
__ptext1                              text1        000460
__ptext10                             text10       0008E6
__ptext11                             text11       0009BC
__ptext12                             text12       0008FE
__ptext13                             text13       000916
__ptext14                             text14       000A98
__ptext15                             text15       000AAA
__ptext16                             text16       0009D2
__ptext17                             text17       0009E8
__ptext18                             text18       00092E
__ptext19                             text19       0009FE
__ptext2                              text2        0004BA
__ptext20                             text20       000A14
__ptext21                             text21       000A2A
__ptext22                             text22       000A40
__ptext23                             text23       000A56
__ptext24                             text24       000946
__ptext25                             text25       00095E
__ptext26                             text26       000ABC
__ptext27                             text27       000A6C
__ptext28                             text28       000ACE
__ptext29                             text29       0007AE
__ptext3                              text3        00067C
__ptext30                             text30       0008A6
__ptext31                             text31       000A82
__ptext32                             text32       000976
__ptext33                             text33       00021C
__ptext34                             text34       000720
__ptext35                             text35       0007EA
__ptext36                             text36       00076C
__ptext37                             text37       000196
__ptext38                             text38       00081E
__ptext39                             text39       000852
__ptext4                              text4        000514
__ptext40                             text40       0008C8
__ptext41                             text41       000318
__ptext42                             text42       00029E
__ptext43                             text43       0003FC
__ptext44                             text44       00098E
__ptext45                             text45       0000A6
__ptext5                              text5        00056E
__ptext6                              text6        0005C8
__ptext7                              text7        0006CE
__ptext8                              text8        000622
__ptext9                              text9        0009A6
__ramtop                              ramtop       000300
__size_of_Button1                     (abs)        000000
__size_of_ButtonInt_config            (abs)        000000
__size_of_GPIO_clearPIN               (abs)        000000
__size_of_GPIO_dataDirectionPIN       (abs)        000000
__size_of_GPIO_setPIN                 (abs)        000000
__size_of_GPIO_sourceClock            (abs)        000000
__size_of_LCDNokia_clear              (abs)        000000
__size_of_LCDNokia_gotoXY             (abs)        000000
__size_of_LCDNokia_init               (abs)        000000
__size_of_LCDNokia_writeByte          (abs)        000000
__size_of_LCD_delay                   (abs)        000000
__size_of_SPI_enableClock             (abs)        000000
__size_of_SPI_enablePins              (abs)        000000
__size_of_SPI_init                    (abs)        000000
__size_of_SPI_write                   (abs)        000000
__size_of_UART_init                   (abs)        000000
__size_of_exitFrequency               (abs)        000000
__size_of_exitPhaseAngle              (abs)        000000
__size_of_exitPower1                  (abs)        000000
__size_of_exitPower2                  (abs)        000000
__size_of_exitPowerFactor             (abs)        000000
__size_of_exitRmsVI                   (abs)        000000
__size_of_exitTemperature             (abs)        000000
__size_of_fhPower2                    (abs)        000000
__size_of_generalView                 (abs)        000000
__size_of_initialLoad                 (abs)        000000
__size_of_main                        (abs)        000000
__size_of_neutralRmsVI                (abs)        000000
__size_of_phPhaseAngle                (abs)        000000
__size_of_phPower1                    (abs)        000000
__size_of_phPower2                    (abs)        000000
__size_of_phPowerFactor               (abs)        000000
__size_of_phRmsVI                     (abs)        000000
__size_of_showFrequency               (abs)        000000
__size_of_showTemperature             (abs)        000000
__size_of_stateFrequency              (abs)        000000
__size_of_stateMainMenu               (abs)        000000
__size_of_statePhaseAngle             (abs)        000000
__size_of_statePower1                 (abs)        000000
__size_of_statePower2                 (abs)        000000
__size_of_statePowerFactor            (abs)        000000
__size_of_stateRmsVI                  (abs)        000000
__size_of_stateTemperature            (abs)        000000
__size_of_typesPower1                 (abs)        000000
__size_of_vectorPower1                (abs)        000000
__size_of_viPhaseAngle                (abs)        000000
__size_of_viewMenu                    (abs)        000000
__smallconst                          smallconst   000000
_exitFrequency                        text31       000A82
_exitPhaseAngle                       text23       000A56
_exitPower1                           text19       0009FE
_exitPower2                           text16       0009D2
_exitPowerFactor                      text14       000A98
_exitRmsVI                            text11       0009BC
_exitTemperature                      text9        0009A6
_fhPower2                             text17       0009E8
_generalView                          text26       000ABC
_initialLoad                          text27       000A6C
_main                                 text0        00038C
_neutralRmsVI                         text12       0008FE
_phPhaseAngle                         text24       000946
_phPower1                             text20       000A14
_phPower2                             text18       00092E
_phPowerFactor                        text15       000AAA
_phRmsVI                              text13       000916
_phasesFrequency                      mediumconst  001FF3
_phasesMainMenu                       mediumconst  001FE9
_phasesPhaseAngle                     mediumconst  001FD7
_phasesPower1                         mediumconst  001FCF
_phasesPower2                         mediumconst  001FE3
_phasesPowerFactor                    mediumconst  001FF7
_phasesRmsVI                          mediumconst  001FDD
_phasesTemperature                    mediumconst  001FEF
_showFrequency                        text32       000976
_showTemperature                      text10       0008E6
_stateFrequency                       text1        000460
_stateMainMenu                        text7        0006CE
_statePhaseAngle                      text2        0004BA
_statePower1                          text6        0005C8
_statePower2                          text5        00056E
_statePowerFactor                     text3        00067C
_stateRmsVI                           text4        000514
_stateTemperature                     text8        000622
_typesPower1                          text21       000A2A
_vectorPower1                         text22       000A40
_viPhaseAngle                         text25       00095E
_viewMenu                             text28       000ACE
btemp                                 temp         00004E
end_of_initialization                 cinit        000898
exitFrequency@currentFrequency2       bssBANK0     000066
exitFrequency@data                    cstackBANK0  000084
exitPhaseAngle@currentPhaseAngle3     bssBANK0     00006C
exitPhaseAngle@data                   cstackBANK0  000084
exitPower1@currentPower1_4            bssCOMRAM    000008
exitPower1@data                       cstackBANK0  000084
exitPower2@currentPower2_3            bssBANK0     00007E
exitPower2@data                       cstackBANK0  000084
exitPowerFactor@currentPowerFactor2   bssCOMRAM    000026
exitPowerFactor@data                  cstackBANK0  000084
exitRmsVI@currentRms3                 bssBANK0     000075
exitRmsVI@data                        cstackBANK0  000084
exitTemperature@currentTemperature2   bssBANK0     000060
exitTemperature@data                  cstackBANK0  000084
expBASE10@value                       bssCOMRAM    000001
fhPower2@currentPower2_1              bssCOMRAM    000005
fhPower2@data                         cstackBANK0  000084
generalView@currentMainMenu2          bssCOMRAM    00002C
generalView@data                      cstackBANK0  00008E
initialLoad@currentMainMenu1          bssCOMRAM    00002E
initialLoad@data                      cstackBANK0  00008E
int$flags                             temp         00004E
intlevel0                             text         000000
intlevel1                             text         000000
intlevel2                             text         000000
intlevel3                             text         000000
main@currentState                     cstackBANK0  000094
main@mainFunctions                    cstackBANK0  000092
neutralRmsVI@currentRms2              bssBANK0     000078
neutralRmsVI@data                     cstackBANK0  000084
phPhaseAngle@currentPhaseAngle1       bssBANK0     000072
phPhaseAngle@data                     cstackBANK0  000084
phPower1@currentPower1_2              bssCOMRAM    00000E
phPower1@data                         cstackBANK0  000084
phPower2@currentPower2_2              bssBANK0     000081
phPower2@data                         cstackBANK0  000084
phPowerFactor@currentPowerFactor1     bssCOMRAM    000028
phPowerFactor@data                    cstackBANK0  000084
phRmsVI@currentRms1                   bssBANK0     00007B
phRmsVI@data                          cstackBANK0  000084
showFrequency@currentFrequency1       bssBANK0     000069
showFrequency@data                    cstackBANK0  000084
showTemperature@currentTemperature1   bssBANK0     000063
showTemperature@data                  cstackBANK0  000084
stackhi                               (abs)        0002FF
stacklo                               (abs)        000095
start                                 init         0000A2
start_initialization                  cinit        000880
stateFrequency@frequencyFunctions     cstackBANK0  000087
stateFrequency@phase                  bssCOMRAM    000035
stateFrequency@phaseFrequency         bssCOMRAM    000017
stateMainMenu@mainMenuFunctions       cstackBANK0  000090
stateMainMenu@phase                   bssCOMRAM    00003B
stateMainMenu@phaseMain               bssCOMRAM    000032
statePhaseAngle@phase                 bssCOMRAM    000036
statePhaseAngle@phaseAngleFunctions   cstackBANK0  000087
statePhaseAngle@phasePhaseAngle       bssCOMRAM    00001A
statePower1@phase                     bssCOMRAM    00003A
statePower1@phasePower1               bssCOMRAM    000023
statePower1@power1Functions           cstackBANK0  000087
statePower2@phase                     bssCOMRAM    000039
statePower2@phasePower2               bssCOMRAM    000020
statePower2@power2Functions           cstackBANK0  000087
statePowerFactor@phase                bssCOMRAM    000037
statePowerFactor@phasePowerFactor     bssCOMRAM    000030
statePowerFactor@powerFactorFunctions cstackBANK0  000086
stateRmsVI@phase                      bssCOMRAM    000038
stateRmsVI@phaseRmsVI                 bssCOMRAM    00001D
stateRmsVI@rmsVIFunctions             cstackBANK0  000087
stateTemperature@phase                bssCOMRAM    000034
stateTemperature@phaseTemperature     bssCOMRAM    000014
stateTemperature@temperatureFunctions cstackBANK0  000087
typesPower1@currentPower1_1           bssCOMRAM    000011
typesPower1@data                      cstackBANK0  000084
vectorPower1@currentPower1_3          bssCOMRAM    00000B
vectorPower1@data                     cstackBANK0  000084
viPhaseAngle@currentPhaseAngle2       bssBANK0     00006F
viPhaseAngle@data                     cstackBANK0  000084
viewMenu@currentMainMenu3             bssCOMRAM    00002A
viewMenu@data                         cstackBANK0  00008E
wtemp6                                temp         00004F


FUNCTION INFORMATION:

 *************** function _main *****************
 Defined at:
		line 26 in file "main.c"
 Parameters:    Size  Location     Type
		None
 Auto vars:     Size  Location     Type
  mainFunction    2   14[BANK0 ] PTR FTN()enum E3172
		 -> stateTemperature(1), stateFrequency(1), statePhaseAngle(1), statePowerFactor(1), 
		 -> stateRmsVI(1), statePower2(1), statePower1(1), stateMainMenu(1), 
  currentState    1   16[BANK0 ] enum E3172
 Return value:  Size  Location     Type
                  1    wreg      void 
 Registers used:
		wreg, status,2, status,0, pclath, tosl, tblptrl, tblptrh, tblptru, prodl, prodh, cstack
 Tracked objects:
		On entry : 
		On exit  : 
		Unchanged: 
 Data sizes:     COMRAM   BANK0   BANK1   BANK2
      Params:         0       0       0       0
      Locals:         0       3       0       0
      Temps:          0       0       0       0
      Totals:         0       3       0       0
Total ram usage:        3 bytes
 Hardware stack levels required when called:    7
 This function calls:
		_ButtonInt_config
		_GPIO_sourceClock
		_LCDNokia_clear
		_LCDNokia_init
		_SPI_init
		_UART_init
		_stateFrequency
		_stateMainMenu
		_statePhaseAngle
		_statePower1
		_statePower2
		_statePowerFactor
		_stateRmsVI
		_stateTemperature
 This function is called by:
		Startup code after reset
 This function uses a non-reentrant model


 *************** function _stateFrequency *****************
 Defined at:
		line 169 in file "States.c"
 Parameters:    Size  Location     Type
		None
 Auto vars:     Size  Location     Type
  frequencyFun    2    3[BANK0 ] PTR FTN(struct .,)struct
		 -> exitFrequency(3), showFrequency(3), 
 Return value:  Size  Location     Type
                  1    wreg      enum E3172
 Registers used:
		wreg, status,2, status,0, pclath, tosl, tblptrl, tblptrh, tblptru, prodl, prodh, cstack
 Tracked objects:
		On entry : 
		On exit  : 
		Unchanged: 
 Data sizes:     COMRAM   BANK0   BANK1   BANK2
      Params:         0       0       0       0
      Locals:         0       2       0       0
      Temps:          0       0       0       0
      Totals:         0       2       0       0
Total ram usage:        2 bytes
 Hardware stack levels used:    1
 Hardware stack levels required when called:    2
 This function calls:
		_exitFrequency
		_showFrequency
 This function is called by:
		_main
 This function uses a non-reentrant model


 *************** function _statePhaseAngle *****************
 Defined at:
		line 152 in file "States.c"
 Parameters:    Size  Location     Type
		None
 Auto vars:     Size  Location     Type
  phaseAngleFu    2    3[BANK0 ] PTR FTN(struct .,)struct
		 -> exitPhaseAngle(3), viPhaseAngle(3), phPhaseAngle(3), 
 Return value:  Size  Location     Type
                  1    wreg      enum E3172
 Registers used:
		wreg, status,2, status,0, pclath, tosl, tblptrl, tblptrh, tblptru, prodl, prodh, cstack
 Tracked objects:
		On entry : 
		On exit  : 
		Unchanged: 
 Data sizes:     COMRAM   BANK0   BANK1   BANK2
      Params:         0       0       0       0
      Locals:         0       2       0       0
      Temps:          0       0       0       0
      Totals:         0       2       0       0
Total ram usage:        2 bytes
 Hardware stack levels used:    1
 Hardware stack levels required when called:    2
 This function calls:
		_exitPhaseAngle
		_phPhaseAngle
		_viPhaseAngle
 This function is called by:
		_main
 This function uses a non-reentrant model


 *************** function _statePowerFactor *****************
 Defined at:
		line 135 in file "States.c"
 Parameters:    Size  Location     Type
		None
 Auto vars:     Size  Location     Type
  powerFactorF    2    2[BANK0 ] PTR FTN(struct .,)struct
		 -> exitPowerFactor(2), phPowerFactor(2), 
 Return value:  Size  Location     Type
                  1    wreg      enum E3172
 Registers used:
		wreg, status,2, status,0, pclath, tosl, tblptrl, tblptrh, tblptru, prodl, prodh, cstack
 Tracked objects:
		On entry : 
		On exit  : 
		Unchanged: 
 Data sizes:     COMRAM   BANK0   BANK1   BANK2
      Params:         0       0       0       0
      Locals:         0       2       0       0
      Temps:          0       0       0       0
      Totals:         0       2       0       0
Total ram usage:        2 bytes
 Hardware stack levels used:    1
 Hardware stack levels required when called:    2
 This function calls:
		_exitPowerFactor
		_phPowerFactor
 This function is called by:
		_main
 This function uses a non-reentrant model


 *************** function _stateRmsVI *****************
 Defined at:
		line 118 in file "States.c"
 Parameters:    Size  Location     Type
		None
 Auto vars:     Size  Location     Type
  rmsVIFunctio    2    3[BANK0 ] PTR FTN(struct .,)struct
		 -> exitRmsVI(3), neutralRmsVI(3), phRmsVI(3), 
 Return value:  Size  Location     Type
                  1    wreg      enum E3172
 Registers used:
		wreg, status,2, status,0, pclath, tosl, tblptrl, tblptrh, tblptru, prodl, prodh, cstack
 Tracked objects:
		On entry : 
		On exit  : 
		Unchanged: 
 Data sizes:     COMRAM   BANK0   BANK1   BANK2
      Params:         0       0       0       0
      Locals:         0       2       0       0
      Temps:          0       0       0       0
      Totals:         0       2       0       0
Total ram usage:        2 bytes
 Hardware stack levels used:    1
 Hardware stack levels required when called:    2
 This function calls:
		_exitRmsVI
		_neutralRmsVI
		_phRmsVI
 This function is called by:
		_main
 This function uses a non-reentrant model


 *************** function _statePower2 *****************
 Defined at:
		line 101 in file "States.c"
 Parameters:    Size  Location     Type
		None
 Auto vars:     Size  Location     Type
  power2Functi    2    3[BANK0 ] PTR FTN(struct .,)struct
		 -> exitPower2(3), phPower2(3), fhPower2(3), 
 Return value:  Size  Location     Type
                  1    wreg      enum E3172
 Registers used:
		wreg, status,2, status,0, pclath, tosl, tblptrl, tblptrh, tblptru, prodl, prodh, cstack
 Tracked objects:
		On entry : 
		On exit  : 
		Unchanged: 
 Data sizes:     COMRAM   BANK0   BANK1   BANK2
      Params:         0       0       0       0
      Locals:         0       2       0       0
      Temps:          0       0       0       0
      Totals:         0       2       0       0
Total ram usage:        2 bytes
 Hardware stack levels used:    1
 Hardware stack levels required when called:    2
 This function calls:
		_exitPower2
		_fhPower2
		_phPower2
 This function is called by:
		_main
 This function uses a non-reentrant model


 *************** function _statePower1 *****************
 Defined at:
		line 84 in file "States.c"
 Parameters:    Size  Location     Type
		None
 Auto vars:     Size  Location     Type
  power1Functi    2    3[BANK0 ] PTR FTN(struct .,)struct
		 -> exitPower1(3), vectorPower1(3), phPower1(3), typesPower1(3), 
 Return value:  Size  Location     Type
                  1    wreg      enum E3172
 Registers used:
		wreg, status,2, status,0, pclath, tosl, tblptrl, tblptrh, tblptru, prodl, prodh, cstack
 Tracked objects:
		On entry : 
		On exit  : 
		Unchanged: 
 Data sizes:     COMRAM   BANK0   BANK1   BANK2
      Params:         0       0       0       0
      Locals:         0       2       0       0
      Temps:          0       0       0       0
      Totals:         0       2       0       0
Total ram usage:        2 bytes
 Hardware stack levels used:    1
 Hardware stack levels required when called:    2
 This function calls:
		_exitPower1
		_phPower1
		_typesPower1
		_vectorPower1
 This function is called by:
		_main
 This function uses a non-reentrant model


 *************** function _stateMainMenu *****************
 Defined at:
		line 67 in file "States.c"
 Parameters:    Size  Location     Type
		None
 Auto vars:     Size  Location     Type
  mainMenuFunc    2   12[BANK0 ] PTR FTN(struct .,)struct
		 -> viewMenu(2), generalView(2), initialLoad(2), 
 Return value:  Size  Location     Type
                  1    wreg      enum E3172
 Registers used:
		wreg, status,2, status,0, pclath, tosl, tblptrl, tblptrh, tblptru, prodl, prodh, cstack
 Tracked objects:
		On entry : 
		On exit  : 
		Unchanged: 
 Data sizes:     COMRAM   BANK0   BANK1   BANK2
      Params:         0       0       0       0
      Locals:         0       2       0       0
      Temps:          0       0       0       0
      Totals:         0       2       0       0
Total ram usage:        2 bytes
 Hardware stack levels used:    1
 Hardware stack levels required when called:    6
 This function calls:
		_generalView
		_initialLoad
		_viewMenu
 This function is called by:
		_main
 This function uses a non-reentrant model


 *************** function _stateTemperature *****************
 Defined at:
		line 186 in file "States.c"
 Parameters:    Size  Location     Type
		None
 Auto vars:     Size  Location     Type
  temperatureF    2    3[BANK0 ] PTR FTN(struct .,)struct
		 -> exitTemperature(3), showTemperature(3), 
 Return value:  Size  Location     Type
                  1    wreg      enum E3172
 Registers used:
		wreg, status,2, status,0, pclath, tosl, tblptrl, tblptrh, tblptru, prodl, prodh, cstack
 Tracked objects:
		On entry : 
		On exit  : 
		Unchanged: 
 Data sizes:     COMRAM   BANK0   BANK1   BANK2
      Params:         0       0       0       0
      Locals:         0       2       0       0
      Temps:          0       0       0       0
      Totals:         0       2       0       0
Total ram usage:        2 bytes
 Hardware stack levels used:    1
 Hardware stack levels required when called:    2
 This function calls:
		_exitTemperature
		_showTemperature
 This function is called by:
		_main
 This function uses a non-reentrant model


 *************** function _exitTemperature *****************
 Defined at:
		line 259 in file "Phases.c"
 Parameters:    Size  Location     Type
  data            3    0[BANK0 ] struct .
 Auto vars:     Size  Location     Type
		None
 Return value:  Size  Location     Type
                  3    0[BANK0 ] struct .
 Registers used:
		None
 Tracked objects:
		On entry : 
		On exit  : 
		Unchanged: 
 Data sizes:     COMRAM   BANK0   BANK1   BANK2
      Params:         0       3       0       0
      Locals:         0       0       0       0
      Temps:          0       0       0       0
      Totals:         0       3       0       0
Total ram usage:        3 bytes
 Hardware stack levels used:    1
 Hardware stack levels required when called:    1
 This function calls:
		Nothing
 This function is called by:
		_stateTemperature
 This function uses a non-reentrant model


 *************** function _showTemperature *****************
 Defined at:
		line 247 in file "Phases.c"
 Parameters:    Size  Location     Type
  data            3    0[BANK0 ] struct .
 Auto vars:     Size  Location     Type
		None
 Return value:  Size  Location     Type
                  3    0[BANK0 ] struct .
 Registers used:
		wreg, status,2
 Tracked objects:
		On entry : 
		On exit  : 
		Unchanged: 
 Data sizes:     COMRAM   BANK0   BANK1   BANK2
      Params:         0       3       0       0
      Locals:         0       0       0       0
      Temps:          0       0       0       0
      Totals:         0       3       0       0
Total ram usage:        3 bytes
 Hardware stack levels used:    1
 Hardware stack levels required when called:    1
 This function calls:
		Nothing
 This function is called by:
		_stateTemperature
 This function uses a non-reentrant model


 *************** function _exitRmsVI *****************
 Defined at:
		line 151 in file "Phases.c"
 Parameters:    Size  Location     Type
  data            3    0[BANK0 ] struct .
 Auto vars:     Size  Location     Type
		None
 Return value:  Size  Location     Type
                  3    0[BANK0 ] struct .
 Registers used:
		None
 Tracked objects:
		On entry : 
		On exit  : 
		Unchanged: 
 Data sizes:     COMRAM   BANK0   BANK1   BANK2
      Params:         0       3       0       0
      Locals:         0       0       0       0
      Temps:          0       0       0       0
      Totals:         0       3       0       0
Total ram usage:        3 bytes
 Hardware stack levels used:    1
 Hardware stack levels required when called:    1
 This function calls:
		Nothing
 This function is called by:
		_stateRmsVI
 This function uses a non-reentrant model


 *************** function _neutralRmsVI *****************
 Defined at:
		line 139 in file "Phases.c"
 Parameters:    Size  Location     Type
  data            3    0[BANK0 ] struct .
 Auto vars:     Size  Location     Type
		None
 Return value:  Size  Location     Type
                  3    0[BANK0 ] struct .
 Registers used:
		wreg, status,2
 Tracked objects:
		On entry : 
		On exit  : 
		Unchanged: 
 Data sizes:     COMRAM   BANK0   BANK1   BANK2
      Params:         0       3       0       0
      Locals:         0       0       0       0
      Temps:          0       0       0       0
      Totals:         0       3       0       0
Total ram usage:        3 bytes
 Hardware stack levels used:    1
 Hardware stack levels required when called:    1
 This function calls:
		Nothing
 This function is called by:
		_stateRmsVI
 This function uses a non-reentrant model


 *************** function _phRmsVI *****************
 Defined at:
		line 127 in file "Phases.c"
 Parameters:    Size  Location     Type
  data            3    0[BANK0 ] struct .
 Auto vars:     Size  Location     Type
		None
 Return value:  Size  Location     Type
                  3    0[BANK0 ] struct .
 Registers used:
		wreg, status,2
 Tracked objects:
		On entry : 
		On exit  : 
		Unchanged: 
 Data sizes:     COMRAM   BANK0   BANK1   BANK2
      Params:         0       3       0       0
      Locals:         0       0       0       0
      Temps:          0       0       0       0
      Totals:         0       3       0       0
Total ram usage:        3 bytes
 Hardware stack levels used:    1
 Hardware stack levels required when called:    1
 This function calls:
		Nothing
 This function is called by:
		_stateRmsVI
 This function uses a non-reentrant model


 *************** function _exitPowerFactor *****************
 Defined at:
		line 175 in file "Phases.c"
 Parameters:    Size  Location     Type
  data            2    0[BANK0 ] struct .
 Auto vars:     Size  Location     Type
		None
 Return value:  Size  Location     Type
                  2    0[BANK0 ] struct .
 Registers used:
		None
 Tracked objects:
		On entry : 
		On exit  : 
		Unchanged: 
 Data sizes:     COMRAM   BANK0   BANK1   BANK2
      Params:         0       2       0       0
      Locals:         0       0       0       0
      Temps:          0       0       0       0
      Totals:         0       2       0       0
Total ram usage:        2 bytes
 Hardware stack levels used:    1
 Hardware stack levels required when called:    1
 This function calls:
		Nothing
 This function is called by:
		_statePowerFactor
 This function uses a non-reentrant model


 *************** function _phPowerFactor *****************
 Defined at:
		line 163 in file "Phases.c"
 Parameters:    Size  Location     Type
  data            2    0[BANK0 ] struct .
 Auto vars:     Size  Location     Type
		None
 Return value:  Size  Location     Type
                  2    0[BANK0 ] struct .
 Registers used:
		wreg, status,2
 Tracked objects:
		On entry : 
		On exit  : 
		Unchanged: 
 Data sizes:     COMRAM   BANK0   BANK1   BANK2
      Params:         0       2       0       0
      Locals:         0       0       0       0
      Temps:          0       0       0       0
      Totals:         0       2       0       0
Total ram usage:        2 bytes
 Hardware stack levels used:    1
 Hardware stack levels required when called:    1
 This function calls:
		Nothing
 This function is called by:
		_statePowerFactor
 This function uses a non-reentrant model


 *************** function _exitPower2 *****************
 Defined at:
		line 115 in file "Phases.c"
 Parameters:    Size  Location     Type
  data            3    0[BANK0 ] struct .
 Auto vars:     Size  Location     Type
		None
 Return value:  Size  Location     Type
                  3    0[BANK0 ] struct .
 Registers used:
		None
 Tracked objects:
		On entry : 
		On exit  : 
		Unchanged: 
 Data sizes:     COMRAM   BANK0   BANK1   BANK2
      Params:         0       3       0       0
      Locals:         0       0       0       0
      Temps:          0       0       0       0
      Totals:         0       3       0       0
Total ram usage:        3 bytes
 Hardware stack levels used:    1
 Hardware stack levels required when called:    1
 This function calls:
		Nothing
 This function is called by:
		_statePower2
 This function uses a non-reentrant model


 *************** function _fhPower2 *****************
 Defined at:
		line 91 in file "Phases.c"
 Parameters:    Size  Location     Type
  data            3    0[BANK0 ] struct .
 Auto vars:     Size  Location     Type
		None
 Return value:  Size  Location     Type
                  3    0[BANK0 ] struct .
 Registers used:
		wreg, status,2
 Tracked objects:
		On entry : 
		On exit  : 
		Unchanged: 
 Data sizes:     COMRAM   BANK0   BANK1   BANK2
      Params:         0       3       0       0
      Locals:         0       0       0       0
      Temps:          0       0       0       0
      Totals:         0       3       0       0
Total ram usage:        3 bytes
 Hardware stack levels used:    1
 Hardware stack levels required when called:    1
 This function calls:
		Nothing
 This function is called by:
		_statePower2
 This function uses a non-reentrant model


 *************** function _phPower2 *****************
 Defined at:
		line 103 in file "Phases.c"
 Parameters:    Size  Location     Type
  data            3    0[BANK0 ] struct .
 Auto vars:     Size  Location     Type
		None
 Return value:  Size  Location     Type
                  3    0[BANK0 ] struct .
 Registers used:
		wreg, status,2
 Tracked objects:
		On entry : 
		On exit  : 
		Unchanged: 
 Data sizes:     COMRAM   BANK0   BANK1   BANK2
      Params:         0       3       0       0
      Locals:         0       0       0       0
      Temps:          0       0       0       0
      Totals:         0       3       0       0
Total ram usage:        3 bytes
 Hardware stack levels used:    1
 Hardware stack levels required when called:    1
 This function calls:
		Nothing
 This function is called by:
		_statePower2
 This function uses a non-reentrant model


 *************** function _exitPower1 *****************
 Defined at:
		line 79 in file "Phases.c"
 Parameters:    Size  Location     Type
  data            3    0[BANK0 ] struct .
 Auto vars:     Size  Location     Type
		None
 Return value:  Size  Location     Type
                  3    0[BANK0 ] struct .
 Registers used:
		None
 Tracked objects:
		On entry : 
		On exit  : 
		Unchanged: 
 Data sizes:     COMRAM   BANK0   BANK1   BANK2
      Params:         0       3       0       0
      Locals:         0       0       0       0
      Temps:          0       0       0       0
      Totals:         0       3       0       0
Total ram usage:        3 bytes
 Hardware stack levels used:    1
 Hardware stack levels required when called:    1
 This function calls:
		Nothing
 This function is called by:
		_statePower1
 This function uses a non-reentrant model


 *************** function _phPower1 *****************
 Defined at:
		line 55 in file "Phases.c"
 Parameters:    Size  Location     Type
  data            3    0[BANK0 ] struct .
 Auto vars:     Size  Location     Type
		None
 Return value:  Size  Location     Type
                  3    0[BANK0 ] struct .
 Registers used:
		wreg, status,2
 Tracked objects:
		On entry : 
		On exit  : 
		Unchanged: 
 Data sizes:     COMRAM   BANK0   BANK1   BANK2
      Params:         0       3       0       0
      Locals:         0       0       0       0
      Temps:          0       0       0       0
      Totals:         0       3       0       0
Total ram usage:        3 bytes
 Hardware stack levels used:    1
 Hardware stack levels required when called:    1
 This function calls:
		Nothing
 This function is called by:
		_statePower1
 This function uses a non-reentrant model


 *************** function _typesPower1 *****************
 Defined at:
		line 43 in file "Phases.c"
 Parameters:    Size  Location     Type
  data            3    0[BANK0 ] struct .
 Auto vars:     Size  Location     Type
		None
 Return value:  Size  Location     Type
                  3    0[BANK0 ] struct .
 Registers used:
		wreg, status,2
 Tracked objects:
		On entry : 
		On exit  : 
		Unchanged: 
 Data sizes:     COMRAM   BANK0   BANK1   BANK2
      Params:         0       3       0       0
      Locals:         0       0       0       0
      Temps:          0       0       0       0
      Totals:         0       3       0       0
Total ram usage:        3 bytes
 Hardware stack levels used:    1
 Hardware stack levels required when called:    1
 This function calls:
		Nothing
 This function is called by:
		_statePower1
 This function uses a non-reentrant model


 *************** function _vectorPower1 *****************
 Defined at:
		line 67 in file "Phases.c"
 Parameters:    Size  Location     Type
  data            3    0[BANK0 ] struct .
 Auto vars:     Size  Location     Type
		None
 Return value:  Size  Location     Type
                  3    0[BANK0 ] struct .
 Registers used:
		wreg, status,2
 Tracked objects:
		On entry : 
		On exit  : 
		Unchanged: 
 Data sizes:     COMRAM   BANK0   BANK1   BANK2
      Params:         0       3       0       0
      Locals:         0       0       0       0
      Temps:          0       0       0       0
      Totals:         0       3       0       0
Total ram usage:        3 bytes
 Hardware stack levels used:    1
 Hardware stack levels required when called:    1
 This function calls:
		Nothing
 This function is called by:
		_statePower1
 This function uses a non-reentrant model


 *************** function _exitPhaseAngle *****************
 Defined at:
		line 211 in file "Phases.c"
 Parameters:    Size  Location     Type
  data            3    0[BANK0 ] struct .
 Auto vars:     Size  Location     Type
		None
 Return value:  Size  Location     Type
                  3    0[BANK0 ] struct .
 Registers used:
		None
 Tracked objects:
		On entry : 
		On exit  : 
		Unchanged: 
 Data sizes:     COMRAM   BANK0   BANK1   BANK2
      Params:         0       3       0       0
      Locals:         0       0       0       0
      Temps:          0       0       0       0
      Totals:         0       3       0       0
Total ram usage:        3 bytes
 Hardware stack levels used:    1
 Hardware stack levels required when called:    1
 This function calls:
		Nothing
 This function is called by:
		_statePhaseAngle
 This function uses a non-reentrant model


 *************** function _phPhaseAngle *****************
 Defined at:
		line 187 in file "Phases.c"
 Parameters:    Size  Location     Type
  data            3    0[BANK0 ] struct .
 Auto vars:     Size  Location     Type
		None
 Return value:  Size  Location     Type
                  3    0[BANK0 ] struct .
 Registers used:
		wreg, status,2
 Tracked objects:
		On entry : 
		On exit  : 
		Unchanged: 
 Data sizes:     COMRAM   BANK0   BANK1   BANK2
      Params:         0       3       0       0
      Locals:         0       0       0       0
      Temps:          0       0       0       0
      Totals:         0       3       0       0
Total ram usage:        3 bytes
 Hardware stack levels used:    1
 Hardware stack levels required when called:    1
 This function calls:
		Nothing
 This function is called by:
		_statePhaseAngle
 This function uses a non-reentrant model


 *************** function _viPhaseAngle *****************
 Defined at:
		line 199 in file "Phases.c"
 Parameters:    Size  Location     Type
  data            3    0[BANK0 ] struct .
 Auto vars:     Size  Location     Type
		None
 Return value:  Size  Location     Type
                  3    0[BANK0 ] struct .
 Registers used:
		wreg, status,2
 Tracked objects:
		On entry : 
		On exit  : 
		Unchanged: 
 Data sizes:     COMRAM   BANK0   BANK1   BANK2
      Params:         0       3       0       0
      Locals:         0       0       0       0
      Temps:          0       0       0       0
      Totals:         0       3       0       0
Total ram usage:        3 bytes
 Hardware stack levels used:    1
 Hardware stack levels required when called:    1
 This function calls:
		Nothing
 This function is called by:
		_statePhaseAngle
 This function uses a non-reentrant model


 *************** function _generalView *****************
 Defined at:
		line 19 in file "Phases.c"
 Parameters:    Size  Location     Type
  data            2   10[BANK0 ] struct .
 Auto vars:     Size  Location     Type
		None
 Return value:  Size  Location     Type
                  2   10[BANK0 ] struct .
 Registers used:
		wreg, status,2
 Tracked objects:
		On entry : 
		On exit  : 
		Unchanged: 
 Data sizes:     COMRAM   BANK0   BANK1   BANK2
      Params:         0       2       0       0
      Locals:         0       0       0       0
      Temps:          0       0       0       0
      Totals:         0       2       0       0
Total ram usage:        2 bytes
 Hardware stack levels used:    1
 Hardware stack levels required when called:    1
 This function calls:
		Nothing
 This function is called by:
		_stateMainMenu
 This function uses a non-reentrant model


 *************** function _initialLoad *****************
 Defined at:
		line 4 in file "Phases.c"
 Parameters:    Size  Location     Type
  data            2   10[BANK0 ] struct .
 Auto vars:     Size  Location     Type
		None
 Return value:  Size  Location     Type
                  2   10[BANK0 ] struct .
 Registers used:
		wreg, status,2, status,0, cstack
 Tracked objects:
		On entry : 
		On exit  : 
		Unchanged: 
 Data sizes:     COMRAM   BANK0   BANK1   BANK2
      Params:         0       2       0       0
      Locals:         0       0       0       0
      Temps:          0       0       0       0
      Totals:         0       2       0       0
Total ram usage:        2 bytes
 Hardware stack levels used:    1
 Hardware stack levels required when called:    5
 This function calls:
		_LCDNokia_clear
 This function is called by:
		_stateMainMenu
 This function uses a non-reentrant model


 *************** function _viewMenu *****************
 Defined at:
		line 31 in file "Phases.c"
 Parameters:    Size  Location     Type
  data            2   10[BANK0 ] struct .
 Auto vars:     Size  Location     Type
		None
 Return value:  Size  Location     Type
                  2   10[BANK0 ] struct .
 Registers used:
		None
 Tracked objects:
		On entry : 
		On exit  : 
		Unchanged: 
 Data sizes:     COMRAM   BANK0   BANK1   BANK2
      Params:         0       2       0       0
      Locals:         0       0       0       0
      Temps:          0       0       0       0
      Totals:         0       2       0       0
Total ram usage:        2 bytes
 Hardware stack levels used:    1
 Hardware stack levels required when called:    1
 This function calls:
		Nothing
 This function is called by:
		_stateMainMenu
 This function uses a non-reentrant model


 *************** function _LCDNokia_clear *****************
 Defined at:
		line 174 in file "LCDNokia5110.c"
 Parameters:    Size  Location     Type
		None
 Auto vars:     Size  Location     Type
  index           2    8[BANK0 ] unsigned int 
 Return value:  Size  Location     Type
                  1    wreg      void 
 Registers used:
		wreg, status,2, status,0, cstack
 Tracked objects:
		On entry : 
		On exit  : 
		Unchanged: 
 Data sizes:     COMRAM   BANK0   BANK1   BANK2
      Params:         0       0       0       0
      Locals:         0       2       0       0
      Temps:          0       0       0       0
      Totals:         0       2       0       0
Total ram usage:        2 bytes
 Hardware stack levels used:    1
 Hardware stack levels required when called:    4
 This function calls:
		_LCDNokia_gotoXY
		_LCDNokia_writeByte
 This function is called by:
		_main
		_initialLoad
 This function uses a non-reentrant model


 *************** function _LCDNokia_gotoXY *****************
 Defined at:
		line 186 in file "LCDNokia5110.c"
 Parameters:    Size  Location     Type
  x               1    wreg     unsigned char 
  y               1    6[BANK0 ] unsigned char 
 Auto vars:     Size  Location     Type
  x               1    7[BANK0 ] unsigned char 
 Return value:  Size  Location     Type
                  1    wreg      void 
 Registers used:
		wreg, status,2, status,0, cstack
 Tracked objects:
		On entry : 
		On exit  : 
		Unchanged: 
 Data sizes:     COMRAM   BANK0   BANK1   BANK2
      Params:         0       1       0       0
      Locals:         0       1       0       0
      Temps:          0       0       0       0
      Totals:         0       2       0       0
Total ram usage:        2 bytes
 Hardware stack levels used:    1
 Hardware stack levels required when called:    3
 This function calls:
		_LCDNokia_writeByte
 This function is called by:
		_LCDNokia_clear
 This function uses a non-reentrant model


 *************** function _exitFrequency *****************
 Defined at:
		line 235 in file "Phases.c"
 Parameters:    Size  Location     Type
  data            3    0[BANK0 ] struct .
 Auto vars:     Size  Location     Type
		None
 Return value:  Size  Location     Type
                  3    0[BANK0 ] struct .
 Registers used:
		None
 Tracked objects:
		On entry : 
		On exit  : 
		Unchanged: 
 Data sizes:     COMRAM   BANK0   BANK1   BANK2
      Params:         0       3       0       0
      Locals:         0       0       0       0
      Temps:          0       0       0       0
      Totals:         0       3       0       0
Total ram usage:        3 bytes
 Hardware stack levels used:    1
 Hardware stack levels required when called:    1
 This function calls:
		Nothing
 This function is called by:
		_stateFrequency
 This function uses a non-reentrant model


 *************** function _showFrequency *****************
 Defined at:
		line 223 in file "Phases.c"
 Parameters:    Size  Location     Type
  data            3    0[BANK0 ] struct .
 Auto vars:     Size  Location     Type
		None
 Return value:  Size  Location     Type
                  3    0[BANK0 ] struct .
 Registers used:
		wreg, status,2
 Tracked objects:
		On entry : 
		On exit  : 
		Unchanged: 
 Data sizes:     COMRAM   BANK0   BANK1   BANK2
      Params:         0       3       0       0
      Locals:         0       0       0       0
      Temps:          0       0       0       0
      Totals:         0       3       0       0
Total ram usage:        3 bytes
 Hardware stack levels used:    1
 Hardware stack levels required when called:    1
 This function calls:
		Nothing
 This function is called by:
		_stateFrequency
 This function uses a non-reentrant model


 *************** function _UART_init *****************
 Defined at:
		line 11 in file "UART.c"
 Parameters:    Size  Location     Type
  baudRate        2    5[BANK0 ] enum E3061
 Auto vars:     Size  Location     Type
		None
 Return value:  Size  Location     Type
                  1    wreg      void 
 Registers used:
		wreg, status,2, status,0, cstack
 Tracked objects:
		On entry : 
		On exit  : 
		Unchanged: 
 Data sizes:     COMRAM   BANK0   BANK1   BANK2
      Params:         0       2       0       0
      Locals:         0       0       0       0
      Temps:          0       2       0       0
      Totals:         0       4       0       0
Total ram usage:        4 bytes
 Hardware stack levels used:    1
 Hardware stack levels required when called:    2
 This function calls:
		_GPIO_dataDirectionPIN
 This function is called by:
		_main
 This function uses a non-reentrant model


 *************** function _SPI_init *****************
 Defined at:
		line 76 in file "SPI.c"
 Parameters:    Size  Location     Type
  SPI_Config      2    2[BANK0 ] PTR const struct .
		 -> SPI_Config(3), 
 Auto vars:     Size  Location     Type
		None
 Return value:  Size  Location     Type
                  1    wreg      void 
 Registers used:
		wreg, status,2, status,0, tblptrl, tblptrh, tblptru, cstack
 Tracked objects:
		On entry : 
		On exit  : 
		Unchanged: 
 Data sizes:     COMRAM   BANK0   BANK1   BANK2
      Params:         0       2       0       0
      Locals:         0       0       0       0
      Temps:          0       2       0       0
      Totals:         0       4       0       0
Total ram usage:        4 bytes
 Hardware stack levels used:    1
 Hardware stack levels required when called:    2
 This function calls:
		_SPI_enableClock
		_SPI_enablePins
 This function is called by:
		_main
 This function uses a non-reentrant model


 *************** function _SPI_enablePins *****************
 Defined at:
		line 48 in file "SPI.c"
 Parameters:    Size  Location     Type
  serial          1    wreg     enum E3069
 Auto vars:     Size  Location     Type
  serial          1    0[BANK0 ] enum E3069
 Return value:  Size  Location     Type
                  1    wreg      void 
 Registers used:
		wreg, status,2, status,0
 Tracked objects:
		On entry : 
		On exit  : 
		Unchanged: 
 Data sizes:     COMRAM   BANK0   BANK1   BANK2
      Params:         0       0       0       0
      Locals:         0       1       0       0
      Temps:          0       0       0       0
      Totals:         0       1       0       0
Total ram usage:        1 bytes
 Hardware stack levels used:    1
 Hardware stack levels required when called:    1
 This function calls:
		Nothing
 This function is called by:
		_SPI_init
 This function uses a non-reentrant model


 *************** function _SPI_enableClock *****************
 Defined at:
		line 14 in file "SPI.c"
 Parameters:    Size  Location     Type
  phase           1    wreg     enum E3065
  cpol            1    0[BANK0 ] enum E3061
 Auto vars:     Size  Location     Type
  phase           1    1[BANK0 ] enum E3065
 Return value:  Size  Location     Type
                  1    wreg      void 
 Registers used:
		wreg, status,2, status,0
 Tracked objects:
		On entry : 
		On exit  : 
		Unchanged: 
 Data sizes:     COMRAM   BANK0   BANK1   BANK2
      Params:         0       1       0       0
      Locals:         0       1       0       0
      Temps:          0       0       0       0
      Totals:         0       2       0       0
Total ram usage:        2 bytes
 Hardware stack levels used:    1
 Hardware stack levels required when called:    1
 This function calls:
		Nothing
 This function is called by:
		_SPI_init
 This function uses a non-reentrant model


 *************** function _LCDNokia_init *****************
 Defined at:
		line 106 in file "LCDNokia5110.c"
 Parameters:    Size  Location     Type
		None
 Auto vars:     Size  Location     Type
		None
 Return value:  Size  Location     Type
                  1    wreg      void 
 Registers used:
		wreg, status,2, status,0, cstack
 Tracked objects:
		On entry : 
		On exit  : 
		Unchanged: 
 Data sizes:     COMRAM   BANK0   BANK1   BANK2
      Params:         0       0       0       0
      Locals:         0       0       0       0
      Temps:          0       0       0       0
      Totals:         0       0       0       0
Total ram usage:        0 bytes
 Hardware stack levels used:    1
 Hardware stack levels required when called:    3
 This function calls:
		_GPIO_clearPIN
		_GPIO_dataDirectionPIN
		_GPIO_setPIN
		_LCDNokia_writeByte
		_LCD_delay
 This function is called by:
		_main
 This function uses a non-reentrant model


 *************** function _LCD_delay *****************
 Defined at:
		line 192 in file "LCDNokia5110.c"
 Parameters:    Size  Location     Type
		None
 Auto vars:     Size  Location     Type
  counter         4    0[BANK0 ] unsigned long 
 Return value:  Size  Location     Type
                  1    wreg      void 
 Registers used:
		wreg, status,2, status,0
 Tracked objects:
		On entry : 
		On exit  : 
		Unchanged: 
 Data sizes:     COMRAM   BANK0   BANK1   BANK2
      Params:         0       0       0       0
      Locals:         0       4       0       0
      Temps:          0       0       0       0
      Totals:         0       4       0       0
Total ram usage:        4 bytes
 Hardware stack levels used:    1
 Hardware stack levels required when called:    1
 This function calls:
		Nothing
 This function is called by:
		_LCDNokia_init
 This function uses a non-reentrant model


 *************** function _LCDNokia_writeByte *****************
 Defined at:
		line 135 in file "LCDNokia5110.c"
 Parameters:    Size  Location     Type
  DataOrCmd       1    wreg     unsigned char 
  data            1    4[BANK0 ] unsigned char 
 Auto vars:     Size  Location     Type
  DataOrCmd       1    5[BANK0 ] unsigned char 
 Return value:  Size  Location     Type
                  1    wreg      void 
 Registers used:
		wreg, status,2, status,0, cstack
 Tracked objects:
		On entry : 
		On exit  : 
		Unchanged: 
 Data sizes:     COMRAM   BANK0   BANK1   BANK2
      Params:         0       1       0       0
      Locals:         0       1       0       0
      Temps:          0       0       0       0
      Totals:         0       2       0       0
Total ram usage:        2 bytes
 Hardware stack levels used:    1
 Hardware stack levels required when called:    2
 This function calls:
		_GPIO_clearPIN
		_GPIO_setPIN
		_SPI_write
 This function is called by:
		_LCDNokia_init
		_LCDNokia_clear
		_LCDNokia_gotoXY
		_LCDNokia_bitmap
		_LCDNokia_sendChar
 This function uses a non-reentrant model


 *************** function _SPI_write *****************
 Defined at:
		line 82 in file "SPI.c"
 Parameters:    Size  Location     Type
  data            1    wreg     unsigned char 
 Auto vars:     Size  Location     Type
  data            1    1[BANK0 ] unsigned char 
  success         1    0[BANK0 ] char 
 Return value:  Size  Location     Type
                  1    wreg      char 
 Registers used:
		wreg, status,2
 Tracked objects:
		On entry : 
		On exit  : 
		Unchanged: 
 Data sizes:     COMRAM   BANK0   BANK1   BANK2
      Params:         0       0       0       0
      Locals:         0       2       0       0
      Temps:          0       0       0       0
      Totals:         0       2       0       0
Total ram usage:        2 bytes
 Hardware stack levels used:    1
 Hardware stack levels required when called:    1
 This function calls:
		Nothing
 This function is called by:
		_LCDNokia_writeByte
 This function uses a non-reentrant model


 *************** function _GPIO_setPIN *****************
 Defined at:
		line 151 in file "GPIO.c"
 Parameters:    Size  Location     Type
  portName        1    wreg     enum E3075
  pin             1    0[BANK0 ] unsigned char 
 Auto vars:     Size  Location     Type
  portName        1    3[BANK0 ] enum E3075
 Return value:  Size  Location     Type
                  1    wreg      void 
 Registers used:
		wreg, status,2, status,0
 Tracked objects:
		On entry : 
		On exit  : 
		Unchanged: 
 Data sizes:     COMRAM   BANK0   BANK1   BANK2
      Params:         0       1       0       0
      Locals:         0       1       0       0
      Temps:          0       2       0       0
      Totals:         0       4       0       0
Total ram usage:        4 bytes
 Hardware stack levels used:    1
 Hardware stack levels required when called:    1
 This function calls:
		Nothing
 This function is called by:
		_LCDNokia_init
		_LCDNokia_writeByte
 This function uses a non-reentrant model


 *************** function _GPIO_clearPIN *****************
 Defined at:
		line 170 in file "GPIO.c"
 Parameters:    Size  Location     Type
  portName        1    wreg     enum E3075
  pin             1    0[BANK0 ] unsigned char 
 Auto vars:     Size  Location     Type
  portName        1    3[BANK0 ] enum E3075
 Return value:  Size  Location     Type
                  1    wreg      void 
 Registers used:
		wreg, status,2, status,0
 Tracked objects:
		On entry : 
		On exit  : 
		Unchanged: 
 Data sizes:     COMRAM   BANK0   BANK1   BANK2
      Params:         0       1       0       0
      Locals:         0       1       0       0
      Temps:          0       2       0       0
      Totals:         0       4       0       0
Total ram usage:        4 bytes
 Hardware stack levels used:    1
 Hardware stack levels required when called:    1
 This function calls:
		Nothing
 This function is called by:
		_LCDNokia_init
		_LCDNokia_writeByte
 This function uses a non-reentrant model


 *************** function _GPIO_sourceClock *****************
 Defined at:
		line 18 in file "GPIO.c"
 Parameters:    Size  Location     Type
  clk             1    wreg     enum E3061
 Auto vars:     Size  Location     Type
  clk             1    0[BANK0 ] enum E3061
 Return value:  Size  Location     Type
                  1    wreg      void 
 Registers used:
		wreg, status,2, status,0
 Tracked objects:
		On entry : 
		On exit  : 
		Unchanged: 
 Data sizes:     COMRAM   BANK0   BANK1   BANK2
      Params:         0       0       0       0
      Locals:         0       1       0       0
      Temps:          0       0       0       0
      Totals:         0       1       0       0
Total ram usage:        1 bytes
 Hardware stack levels used:    1
 Hardware stack levels required when called:    1
 This function calls:
		Nothing
 This function is called by:
		_main
 This function uses a non-reentrant model


 *************** function _ButtonInt_config *****************
 Defined at:
		line 16 in file "Buttons.c"
 Parameters:    Size  Location     Type
		None
 Auto vars:     Size  Location     Type
		None
 Return value:  Size  Location     Type
                  1    wreg      void 
 Registers used:
		wreg, status,2, status,0, cstack
 Tracked objects:
		On entry : 
		On exit  : 
		Unchanged: 
 Data sizes:     COMRAM   BANK0   BANK1   BANK2
      Params:         0       0       0       0
      Locals:         0       0       0       0
      Temps:          0       0       0       0
      Totals:         0       0       0       0
Total ram usage:        0 bytes
 Hardware stack levels used:    1
 Hardware stack levels required when called:    2
 This function calls:
		_GPIO_dataDirectionPIN
 This function is called by:
		_main
 This function uses a non-reentrant model


 *************** function _GPIO_dataDirectionPIN *****************
 Defined at:
		line 51 in file "GPIO.c"
 Parameters:    Size  Location     Type
  portName        1    wreg     enum E3075
  pin             1    0[BANK0 ] unsigned char 
  state           1    1[BANK0 ] enum E3071
 Auto vars:     Size  Location     Type
  portName        1    4[BANK0 ] enum E3075
 Return value:  Size  Location     Type
                  1    wreg      void 
 Registers used:
		wreg, status,2, status,0
 Tracked objects:
		On entry : 
		On exit  : 
		Unchanged: 
 Data sizes:     COMRAM   BANK0   BANK1   BANK2
      Params:         0       2       0       0
      Locals:         0       1       0       0
      Temps:          0       2       0       0
      Totals:         0       5       0       0
Total ram usage:        5 bytes
 Hardware stack levels used:    1
 Hardware stack levels required when called:    1
 This function calls:
		Nothing
 This function is called by:
		_UART_init
		_LCDNokia_init
		_ButtonInt_config
 This function uses a non-reentrant model


 *************** function _Button1 *****************
 Defined at:
		line 5 in file "Buttons.c"
 Parameters:    Size  Location     Type
		None
 Auto vars:     Size  Location     Type
		None
 Return value:  Size  Location     Type
                  1    wreg      void 
 Registers used:
		None
 Tracked objects:
		On entry : 
		On exit  : 
		Unchanged: 
 Data sizes:     COMRAM   BANK0   BANK1   BANK2
      Params:         0       0       0       0
      Locals:         0       0       0       0
      Temps:         18       0       0       0
      Totals:        18       0       0       0
Total ram usage:       18 bytes
 Hardware stack levels used:    1
 This function calls:
		Nothing
 This function is called by:
		Interrupt level 2
 This function uses a non-reentrant model



MODULE INFORMATION

Module		Function		Class		Link	Load	Size
UART.c
		_UART_init     		CODE           	021C	0000	131

UART.c estimated size: 131

LCDNokia5110.c
		_LCDNokia_init 		CODE           	0196	0000	135
		_LCDNokia_clear		CODE           	07AE	0000	61
		_LCDNokia_gotoXY		CODE           	08A6	0000	35
		_LCDNokia_writeByte		CODE           	0852	0000	47
		_LCD_delay     		CODE           	081E	0000	53

LCDNokia5110.c estimated size: 331

Buttons.c
		_ButtonInt_config		CODE           	098E	0000	25
		_Button1       		CODE           	0008	0000	155

Buttons.c estimated size: 180

Phases.c
		_fhPower2      		CODE           	09E8	0000	23
		_exitPower1    		CODE           	09FE	0000	23
		_exitPower2    		CODE           	09D2	0000	23
		_generalView   		CODE           	0ABC	0000	19
		_typesPower1   		CODE           	0A2A	0000	23
		_exitFrequency 		CODE           	0A82	0000	23
		_phPower1      		CODE           	0A14	0000	23
		_phPower2      		CODE           	092E	0000	25
		_vectorPower1  		CODE           	0A40	0000	23
		_phPowerFactor 		CODE           	0AAA	0000	19
		_showTemperature		CODE           	08E6	0000	25
		_showFrequency 		CODE           	0976	0000	25
		_exitPowerFactor		CODE           	0A98	0000	19
		_phPhaseAngle  		CODE           	0946	0000	25
		_neutralRmsVI  		CODE           	08FE	0000	25
		_exitPhaseAngle		CODE           	0A56	0000	23
		_viPhaseAngle  		CODE           	095E	0000	25
		_initialLoad   		CODE           	0A6C	0000	23
		_viewMenu      		CODE           	0ACE	0000	19
		_exitRmsVI     		CODE           	09BC	0000	23
		_exitTemperature		CODE           	09A6	0000	23
		_phRmsVI       		CODE           	0916	0000	25

Phases.c estimated size: 504

shared
		_phasesFrequency		MEDIUMCONST    	1FF3	0000	5
		_ASCII         		MEDIUMCONST    	1DDF	0000	481
		_SPI_Config    		MEDIUMCONST    	1FFB	0000	4
		__initialization		CODE           	0880	0000	25
		_phasesPower1  		MEDIUMCONST    	1FCF	0000	9
		_phasesPower2  		MEDIUMCONST    	1FE3	0000	7
		_phasesTemperature		MEDIUMCONST    	1FEF	0000	5
		_phasesPhaseAngle		MEDIUMCONST    	1FD7	0000	7
		_phasesMainMenu		MEDIUMCONST    	1FE9	0000	7
		_phasesPowerFactor		MEDIUMCONST    	1FF7	0000	5
		_phasesRmsVI   		MEDIUMCONST    	1FDD	0000	7
		_StateProgram  		MEDIUMCONST    	1FBF	0000	17

shared estimated size: 579

GPIO.c
		_GPIO_clearPIN 		CODE           	029E	0000	123
		_GPIO_dataDirectionPIN		CODE           	00A6	0000	241
		_GPIO_sourceClock		CODE           	03FC	0000	101
		_GPIO_setPIN   		CODE           	0318	0000	117

GPIO.c estimated size: 582

SPI.c
		_SPI_init      		CODE           	0720	0000	77
		_SPI_enablePins		CODE           	07EA	0000	53
		_SPI_enableClock		CODE           	076C	0000	67
		_SPI_write     		CODE           	08C8	0000	31

SPI.c estimated size: 228

States.c
		_stateFrequency		CODE           	0460	0000	91
		_statePower1   		CODE           	05C8	0000	91
		_statePower2   		CODE           	056E	0000	91
		_statePowerFactor		CODE           	067C	0000	83
		_stateRmsVI    		CODE           	0514	0000	91
		_stateMainMenu 		CODE           	06CE	0000	83
		_stateTemperature		CODE           	0622	0000	91
		_statePhaseAngle		CODE           	04BA	0000	91

States.c estimated size: 712

main.c
		_main          		CODE           	038C	0000	113

main.c estimated size: 113

