

Microchip Technology PIC18 LITE Macro Assembler V1.44 build -154322312 
                                                                                               Fri Jun 08 20:32:50 2018

Microchip Technology Omniscient Code Generator v1.44 (Free mode) build 201709140600
     1                           	processor	18F2331
     2                           	fnconf	rparam,??,?,0
     3                           	opt	pw 120
     4                           	opt	lm
     5                           	psect	idataBANK0,global,class=CODE,delta=1,noexec
     6                           	psect	mediumconst,global,reloc=2,class=MEDIUMCONST,delta=1,noexec
     7                           	psect	cinit,global,reloc=2,class=CODE,delta=1
     8                           	psect	bssCOMRAM,global,class=COMRAM,space=1,delta=1,noexec
     9                           	psect	bssBANK0,global,class=BANK0,space=1,delta=1,lowdata,noexec
    10                           	psect	dataBANK0,global,class=BANK0,space=1,delta=1,lowdata,noexec
    11                           	psect	cstackCOMRAM,global,class=COMRAM,space=1,delta=1,noexec
    12                           	psect	text0,global,reloc=2,class=CODE,delta=1
    13                           	psect	text1,global,reloc=2,class=CODE,delta=1
    14                           	psect	text2,global,reloc=2,class=CODE,delta=1
    15                           	psect	text3,global,reloc=2,class=CODE,delta=1
    16                           	psect	text4,global,reloc=2,class=CODE,delta=1
    17                           	psect	text5,global,reloc=2,class=CODE,delta=1
    18                           	psect	text6,global,reloc=2,class=CODE,delta=1,group=1
    19                           	psect	text7,global,reloc=2,class=CODE,delta=1
    20                           	psect	text8,global,reloc=2,class=CODE,delta=1
    21                           	psect	text9,global,reloc=2,class=CODE,delta=1
    22                           	psect	text10,global,reloc=2,class=CODE,delta=1
    23                           	psect	text11,global,reloc=2,class=CODE,delta=1
    24                           	psect	text12,global,reloc=2,class=CODE,delta=1
    25                           	psect	text13,global,reloc=2,class=CODE,delta=1
    26                           	psect	text14,global,reloc=2,class=CODE,delta=1
    27                           	psect	text15,global,reloc=2,class=CODE,delta=1
    28                           	psect	text16,global,reloc=2,class=CODE,delta=1
    29                           	psect	text17,global,reloc=2,class=CODE,delta=1
    30                           	psect	intsave_regs,global,class=BIGRAM,space=1,delta=1,noexec
    31                           	psect	rparam,global,class=COMRAM,space=1,delta=1,noexec
    32  0000                     
    33                           ; Version 1.44
    34                           ; Generated 14/09/2017 GMT
    35                           ; 
    36                           ; Copyright © 2017, Microchip Technology Inc. and its subsidiaries ("Microchip")
    37                           ; All rights reserved.
    38                           ; 
    39                           ; This software is developed by Microchip Technology Inc. and its subsidiaries ("Microch
      +                          ip").
    40                           ; 
    41                           ; Redistribution and use in source and binary forms, with or without modification, are
    42                           ; permitted provided that the following conditions are met:
    43                           ; 
    44                           ;     1. Redistributions of source code must retain the above copyright notice, this lis
      +                          t of
    45                           ;        conditions and the following disclaimer.
    46                           ; 
    47                           ;     2. Redistributions in binary form must reproduce the above copyright notice, this 
      +                          list
    48                           ;        of conditions and the following disclaimer in the documentation and/or other
    49                           ;        materials provided with the distribution.
    50                           ; 
    51                           ;     3. Microchip's name may not be used to endorse or promote products derived from th
      +                          is
    52                           ;        software without specific prior written permission.
    53                           ; 
    54                           ; THIS SOFTWARE IS PROVIDED BY MICROCHIP "AS IS" AND ANY EXPRESS OR IMPLIED WARRANTIES,
    55                           ; INCLUDING, BUT NOT LIMITED TO, THE IMPLIED WARRANTIES OF MERCHANTABILITY AND FITNESS F
      +                          OR
    56                           ; PURPOSE ARE DISCLAIMED.  IN NO EVENT SHALL MICROCHIP BE LIABLE FOR ANY DIRECT, INDIREC
      +                          T,
    57                           ; INCIDENTAL, SPECIAL, EXEMPLARY, OR CONSEQUENTIAL DAMAGES (INCLUDING BUT NOT LIMITED TO
    58                           ; PROCUREMENT OF SUBSTITUTE GOODS OR SERVICES; LOSS OF USE, DATA OR PROFITS; OR BUSINESS
    59                           ; INTERRUPTION) HOWSOEVER CAUSED AND ON ANY THEORY OF LIABILITY, WHETHER IN CONTRACT, ST
      +                          RICT
    60                           ; LIABILITY, OR TORT (INCLUDING NEGLIGENCE OR OTHERWISE) ARISING IN ANY WAY OUT OF THE U
      +                          SE OF
    61                           ; THIS SOFTWARE, EVEN IF ADVISED OF THE POSSIBILITY OF SUCH DAMAGE.
    62                           ; 
    63                           ; 
    64                           ; Code-generator required, PIC18F2331 Definitions
    65                           ; 
    66                           ; SFR Addresses
    67  0000                     
    68 ;; Function _stateMainMenu is unused but had its address taken
    69  0000                     
    70 ;; Function _statePower1 is unused but had its address taken
    71  0000                     
    72 ;; Function _statePower2 is unused but had its address taken
    73  0000                     
    74 ;; Function _stateRmsVI is unused but had its address taken
    75  0000                     
    76 ;; Function _statePowerFactor is unused but had its address taken
    77  0000                     
    78 ;; Function _statePhaseAngle is unused but had its address taken
    79  0000                     
    80 ;; Function _stateFrequency is unused but had its address taken
    81  0000                     
    82 ;; Function _stateTemperature is unused but had its address taken
    83  0000                     
    84 ;; Function _initialLoad is unused but had its address taken
    85  0000                     
    86 ;; Function _generalView is unused but had its address taken
    87  0000                     
    88 ;; Function _viewMenu is unused but had its address taken
    89  0000                     
    90 ;; Function _sendData is unused but had its address taken
    91  0000                     
    92 ;; Function _typesPower1 is unused but had its address taken
    93  0000                     
    94 ;; Function _phPower1 is unused but had its address taken
    95  0000                     
    96 ;; Function _vectorPower1 is unused but had its address taken
    97  0000                     
    98 ;; Function _exitPower1 is unused but had its address taken
    99  0000                     
   100 ;; Function _fhPower2 is unused but had its address taken
   101  0000                     
   102 ;; Function _phPower2 is unused but had its address taken
   103  0000                     
   104 ;; Function _exitPower2 is unused but had its address taken
   105  0000                     
   106 ;; Function _phRmsVI is unused but had its address taken
   107  0000                     
   108 ;; Function _neutralRmsVI is unused but had its address taken
   109  0000                     
   110 ;; Function _exitRmsVI is unused but had its address taken
   111  0000                     
   112 ;; Function _phPowerFactor is unused but had its address taken
   113  0000                     
   114 ;; Function _exitPowerFactor is unused but had its address taken
   115  0000                     
   116 ;; Function _phPhaseAngle is unused but had its address taken
   117  0000                     
   118 ;; Function _viPhaseAngle is unused but had its address taken
   119  0000                     
   120 ;; Function _exitPhaseAngle is unused but had its address taken
   121  0000                     
   122 ;; Function _showFrequency is unused but had its address taken
   123  0000                     
   124 ;; Function _exitFrequency is unused but had its address taken
   125  0000                     
   126 ;; Function _showTemperature is unused but had its address taken
   127  0000                     
   128 ;; Function _exitTemperature is unused but had its address taken
   129  0000                     
   130                           	psect	idataBANK0
   131  001829                     __pidataBANK0:
   132                           	opt stack 0
   133                           
   134                           ;initializer for main@F3300
   135  001829  48                 	db	72
   136  00182A  6F                 	db	111
   137  00182B  6C                 	db	108
   138  00182C  61                 	db	97
   139  00182D  20                 	db	32
   140  00182E  4D                 	db	77
   141  00182F  75                 	db	117
   142  001830  6E                 	db	110
   143  001831  64                 	db	100
   144  001832  6F                 	db	111
   145  001833  00                 	db	0
   146                           
   147                           	psect	mediumconst
   148  001DB6                     __pmediumconst:
   149                           	opt stack 0
   150  001DB6  00                 	db	0
   151  001DB7                     _ASCII:
   152                           	opt stack 0
   153  001DB7  00                 	db	0
   154  001DB8  00                 	db	0
   155  001DB9  00                 	db	0
   156  001DBA  00                 	db	0
   157  001DBB  00                 	db	0
   158  001DBC  00                 	db	0
   159  001DBD  00                 	db	0
   160  001DBE  5F                 	db	95
   161  001DBF  00                 	db	0
   162  001DC0  00                 	db	0
   163  001DC1  00                 	db	0
   164  001DC2  07                 	db	7
   165  001DC3  00                 	db	0
   166  001DC4  07                 	db	7
   167  001DC5  00                 	db	0
   168  001DC6  14                 	db	20
   169  001DC7  7F                 	db	127
   170  001DC8  14                 	db	20
   171  001DC9  7F                 	db	127
   172  001DCA  14                 	db	20
   173  001DCB  24                 	db	36
   174  001DCC  2A                 	db	42
   175  001DCD  7F                 	db	127
   176  001DCE  2A                 	db	42
   177  001DCF  12                 	db	18
   178  001DD0  23                 	db	35
   179  001DD1  13                 	db	19
   180  001DD2  08                 	db	8
   181  001DD3  64                 	db	100
   182  001DD4  62                 	db	98
   183  001DD5  36                 	db	54
   184  001DD6  49                 	db	73
   185  001DD7  55                 	db	85
   186  001DD8  22                 	db	34
   187  001DD9  50                 	db	80
   188  001DDA  00                 	db	0
   189  001DDB  05                 	db	5
   190  001DDC  03                 	db	3
   191  001DDD  00                 	db	0
   192  001DDE  00                 	db	0
   193  001DDF  00                 	db	0
   194  001DE0  1C                 	db	28
   195  001DE1  22                 	db	34
   196  001DE2  41                 	db	65
   197  001DE3  00                 	db	0
   198  001DE4  00                 	db	0
   199  001DE5  41                 	db	65
   200  001DE6  22                 	db	34
   201  001DE7  1C                 	db	28
   202  001DE8  00                 	db	0
   203  001DE9  14                 	db	20
   204  001DEA  08                 	db	8
   205  001DEB  3E                 	db	62
   206  001DEC  08                 	db	8
   207  001DED  14                 	db	20
   208  001DEE  08                 	db	8
   209  001DEF  08                 	db	8
   210  001DF0  3E                 	db	62
   211  001DF1  08                 	db	8
   212  001DF2  08                 	db	8
   213  001DF3  00                 	db	0
   214  001DF4  50                 	db	80
   215  001DF5  30                 	db	48
   216  001DF6  00                 	db	0
   217  001DF7  00                 	db	0
   218  001DF8  08                 	db	8
   219  001DF9  08                 	db	8
   220  001DFA  08                 	db	8
   221  001DFB  08                 	db	8
   222  001DFC  08                 	db	8
   223  001DFD  00                 	db	0
   224  001DFE  60                 	db	96
   225  001DFF  60                 	db	96
   226  001E00  00                 	db	0
   227  001E01  00                 	db	0
   228  001E02  20                 	db	32
   229  001E03  10                 	db	16
   230  001E04  08                 	db	8
   231  001E05  04                 	db	4
   232  001E06  02                 	db	2
   233  001E07  3E                 	db	62
   234  001E08  51                 	db	81
   235  001E09  49                 	db	73
   236  001E0A  45                 	db	69
   237  001E0B  3E                 	db	62
   238  001E0C  00                 	db	0
   239  001E0D  42                 	db	66
   240  001E0E  7F                 	db	127
   241  001E0F  40                 	db	64
   242  001E10  00                 	db	0
   243  001E11  42                 	db	66
   244  001E12  61                 	db	97
   245  001E13  51                 	db	81
   246  001E14  49                 	db	73
   247  001E15  46                 	db	70
   248  001E16  21                 	db	33
   249  001E17  41                 	db	65
   250  001E18  45                 	db	69
   251  001E19  4B                 	db	75
   252  001E1A  31                 	db	49
   253  001E1B  18                 	db	24
   254  001E1C  14                 	db	20
   255  001E1D  12                 	db	18
   256  001E1E  7F                 	db	127
   257  001E1F  10                 	db	16
   258  001E20  27                 	db	39
   259  001E21  45                 	db	69
   260  001E22  45                 	db	69
   261  001E23  45                 	db	69
   262  001E24  39                 	db	57
   263  001E25  3C                 	db	60
   264  001E26  4A                 	db	74
   265  001E27  49                 	db	73
   266  001E28  49                 	db	73
   267  001E29  30                 	db	48
   268  001E2A  01                 	db	1
   269  001E2B  71                 	db	113
   270  001E2C  09                 	db	9
   271  001E2D  05                 	db	5
   272  001E2E  03                 	db	3
   273  001E2F  36                 	db	54
   274  001E30  49                 	db	73
   275  001E31  49                 	db	73
   276  001E32  49                 	db	73
   277  001E33  36                 	db	54
   278  001E34  06                 	db	6
   279  001E35  49                 	db	73
   280  001E36  49                 	db	73
   281  001E37  29                 	db	41
   282  001E38  1E                 	db	30
   283  001E39  00                 	db	0
   284  001E3A  36                 	db	54
   285  001E3B  36                 	db	54
   286  001E3C  00                 	db	0
   287  001E3D  00                 	db	0
   288  001E3E  00                 	db	0
   289  001E3F  56                 	db	86
   290  001E40  36                 	db	54
   291  001E41  00                 	db	0
   292  001E42  00                 	db	0
   293  001E43  08                 	db	8
   294  001E44  14                 	db	20
   295  001E45  22                 	db	34
   296  001E46  41                 	db	65
   297  001E47  00                 	db	0
   298  001E48  14                 	db	20
   299  001E49  14                 	db	20
   300  001E4A  14                 	db	20
   301  001E4B  14                 	db	20
   302  001E4C  14                 	db	20
   303  001E4D  00                 	db	0
   304  001E4E  41                 	db	65
   305  001E4F  22                 	db	34
   306  001E50  14                 	db	20
   307  001E51  08                 	db	8
   308  001E52  02                 	db	2
   309  001E53  01                 	db	1
   310  001E54  51                 	db	81
   311  001E55  09                 	db	9
   312  001E56  06                 	db	6
   313  001E57  32                 	db	50
   314  001E58  49                 	db	73
   315  001E59  79                 	db	121
   316  001E5A  41                 	db	65
   317  001E5B  3E                 	db	62
   318  001E5C  7E                 	db	126
   319  001E5D  11                 	db	17
   320  001E5E  11                 	db	17
   321  001E5F  11                 	db	17
   322  001E60  7E                 	db	126
   323  001E61  7F                 	db	127
   324  001E62  49                 	db	73
   325  001E63  49                 	db	73
   326  001E64  49                 	db	73
   327  001E65  36                 	db	54
   328  001E66  3E                 	db	62
   329  001E67  41                 	db	65
   330  001E68  41                 	db	65
   331  001E69  41                 	db	65
   332  001E6A  22                 	db	34
   333  001E6B  7F                 	db	127
   334  001E6C  41                 	db	65
   335  001E6D  41                 	db	65
   336  001E6E  22                 	db	34
   337  001E6F  1C                 	db	28
   338  001E70  7F                 	db	127
   339  001E71  49                 	db	73
   340  001E72  49                 	db	73
   341  001E73  49                 	db	73
   342  001E74  41                 	db	65
   343  001E75  7F                 	db	127
   344  001E76  09                 	db	9
   345  001E77  09                 	db	9
   346  001E78  09                 	db	9
   347  001E79  01                 	db	1
   348  001E7A  3E                 	db	62
   349  001E7B  41                 	db	65
   350  001E7C  49                 	db	73
   351  001E7D  49                 	db	73
   352  001E7E  7A                 	db	122
   353  001E7F  7F                 	db	127
   354  001E80  08                 	db	8
   355  001E81  08                 	db	8
   356  001E82  08                 	db	8
   357  001E83  7F                 	db	127
   358  001E84  00                 	db	0
   359  001E85  41                 	db	65
   360  001E86  7F                 	db	127
   361  001E87  41                 	db	65
   362  001E88  00                 	db	0
   363  001E89  20                 	db	32
   364  001E8A  40                 	db	64
   365  001E8B  41                 	db	65
   366  001E8C  3F                 	db	63
   367  001E8D  01                 	db	1
   368  001E8E  7F                 	db	127
   369  001E8F  08                 	db	8
   370  001E90  14                 	db	20
   371  001E91  22                 	db	34
   372  001E92  41                 	db	65
   373  001E93  7F                 	db	127
   374  001E94  40                 	db	64
   375  001E95  40                 	db	64
   376  001E96  40                 	db	64
   377  001E97  40                 	db	64
   378  001E98  7F                 	db	127
   379  001E99  02                 	db	2
   380  001E9A  0C                 	db	12
   381  001E9B  02                 	db	2
   382  001E9C  7F                 	db	127
   383  001E9D  7F                 	db	127
   384  001E9E  04                 	db	4
   385  001E9F  08                 	db	8
   386  001EA0  10                 	db	16
   387  001EA1  7F                 	db	127
   388  001EA2  3E                 	db	62
   389  001EA3  41                 	db	65
   390  001EA4  41                 	db	65
   391  001EA5  41                 	db	65
   392  001EA6  3E                 	db	62
   393  001EA7  7F                 	db	127
   394  001EA8  09                 	db	9
   395  001EA9  09                 	db	9
   396  001EAA  09                 	db	9
   397  001EAB  06                 	db	6
   398  001EAC  3E                 	db	62
   399  001EAD  41                 	db	65
   400  001EAE  51                 	db	81
   401  001EAF  21                 	db	33
   402  001EB0  5E                 	db	94
   403  001EB1  7F                 	db	127
   404  001EB2  09                 	db	9
   405  001EB3  19                 	db	25
   406  001EB4  29                 	db	41
   407  001EB5  46                 	db	70
   408  001EB6  46                 	db	70
   409  001EB7  49                 	db	73
   410  001EB8  49                 	db	73
   411  001EB9  49                 	db	73
   412  001EBA  31                 	db	49
   413  001EBB  01                 	db	1
   414  001EBC  01                 	db	1
   415  001EBD  7F                 	db	127
   416  001EBE  01                 	db	1
   417  001EBF  01                 	db	1
   418  001EC0  3F                 	db	63
   419  001EC1  40                 	db	64
   420  001EC2  40                 	db	64
   421  001EC3  40                 	db	64
   422  001EC4  3F                 	db	63
   423  001EC5  1F                 	db	31
   424  001EC6  20                 	db	32
   425  001EC7  40                 	db	64
   426  001EC8  20                 	db	32
   427  001EC9  1F                 	db	31
   428  001ECA  3F                 	db	63
   429  001ECB  40                 	db	64
   430  001ECC  38                 	db	56
   431  001ECD  40                 	db	64
   432  001ECE  3F                 	db	63
   433  001ECF  63                 	db	99
   434  001ED0  14                 	db	20
   435  001ED1  08                 	db	8
   436  001ED2  14                 	db	20
   437  001ED3  63                 	db	99
   438  001ED4  07                 	db	7
   439  001ED5  08                 	db	8
   440  001ED6  70                 	db	112
   441  001ED7  08                 	db	8
   442  001ED8  07                 	db	7
   443  001ED9  61                 	db	97
   444  001EDA  51                 	db	81
   445  001EDB  49                 	db	73
   446  001EDC  45                 	db	69
   447  001EDD  43                 	db	67
   448  001EDE  00                 	db	0
   449  001EDF  7F                 	db	127
   450  001EE0  41                 	db	65
   451  001EE1  41                 	db	65
   452  001EE2  00                 	db	0
   453  001EE3  02                 	db	2
   454  001EE4  04                 	db	4
   455  001EE5  08                 	db	8
   456  001EE6  10                 	db	16
   457  001EE7  20                 	db	32
   458  001EE8  00                 	db	0
   459  001EE9  41                 	db	65
   460  001EEA  41                 	db	65
   461  001EEB  7F                 	db	127
   462  001EEC  00                 	db	0
   463  001EED  04                 	db	4
   464  001EEE  02                 	db	2
   465  001EEF  01                 	db	1
   466  001EF0  02                 	db	2
   467  001EF1  04                 	db	4
   468  001EF2  40                 	db	64
   469  001EF3  40                 	db	64
   470  001EF4  40                 	db	64
   471  001EF5  40                 	db	64
   472  001EF6  40                 	db	64
   473  001EF7  00                 	db	0
   474  001EF8  01                 	db	1
   475  001EF9  02                 	db	2
   476  001EFA  04                 	db	4
   477  001EFB  00                 	db	0
   478  001EFC  20                 	db	32
   479  001EFD  54                 	db	84
   480  001EFE  54                 	db	84
   481  001EFF  54                 	db	84
   482  001F00  78                 	db	120
   483  001F01  7F                 	db	127
   484  001F02  48                 	db	72
   485  001F03  44                 	db	68
   486  001F04  44                 	db	68
   487  001F05  38                 	db	56
   488  001F06  38                 	db	56
   489  001F07  44                 	db	68
   490  001F08  44                 	db	68
   491  001F09  44                 	db	68
   492  001F0A  20                 	db	32
   493  001F0B  38                 	db	56
   494  001F0C  44                 	db	68
   495  001F0D  44                 	db	68
   496  001F0E  48                 	db	72
   497  001F0F  7F                 	db	127
   498  001F10  38                 	db	56
   499  001F11  54                 	db	84
   500  001F12  54                 	db	84
   501  001F13  54                 	db	84
   502  001F14  18                 	db	24
   503  001F15  08                 	db	8
   504  001F16  7E                 	db	126
   505  001F17  09                 	db	9
   506  001F18  01                 	db	1
   507  001F19  02                 	db	2
   508  001F1A  0C                 	db	12
   509  001F1B  52                 	db	82
   510  001F1C  52                 	db	82
   511  001F1D  52                 	db	82
   512  001F1E  3E                 	db	62
   513  001F1F  7F                 	db	127
   514  001F20  08                 	db	8
   515  001F21  04                 	db	4
   516  001F22  04                 	db	4
   517  001F23  78                 	db	120
   518  001F24  00                 	db	0
   519  001F25  44                 	db	68
   520  001F26  7D                 	db	125
   521  001F27  40                 	db	64
   522  001F28  00                 	db	0
   523  001F29  20                 	db	32
   524  001F2A  40                 	db	64
   525  001F2B  44                 	db	68
   526  001F2C  3D                 	db	61
   527  001F2D  00                 	db	0
   528  001F2E  7F                 	db	127
   529  001F2F  10                 	db	16
   530  001F30  28                 	db	40
   531  001F31  44                 	db	68
   532  001F32  00                 	db	0
   533  001F33  00                 	db	0
   534  001F34  41                 	db	65
   535  001F35  7F                 	db	127
   536  001F36  40                 	db	64
   537  001F37  00                 	db	0
   538  001F38  7C                 	db	124
   539  001F39  04                 	db	4
   540  001F3A  18                 	db	24
   541  001F3B  04                 	db	4
   542  001F3C  78                 	db	120
   543  001F3D  7C                 	db	124
   544  001F3E  08                 	db	8
   545  001F3F  04                 	db	4
   546  001F40  04                 	db	4
   547  001F41  78                 	db	120
   548  001F42  38                 	db	56
   549  001F43  44                 	db	68
   550  001F44  44                 	db	68
   551  001F45  44                 	db	68
   552  001F46  38                 	db	56
   553  001F47  7C                 	db	124
   554  001F48  14                 	db	20
   555  001F49  14                 	db	20
   556  001F4A  14                 	db	20
   557  001F4B  08                 	db	8
   558  001F4C  08                 	db	8
   559  001F4D  14                 	db	20
   560  001F4E  14                 	db	20
   561  001F4F  18                 	db	24
   562  001F50  7C                 	db	124
   563  001F51  7C                 	db	124
   564  001F52  08                 	db	8
   565  001F53  04                 	db	4
   566  001F54  04                 	db	4
   567  001F55  08                 	db	8
   568  001F56  48                 	db	72
   569  001F57  54                 	db	84
   570  001F58  54                 	db	84
   571  001F59  54                 	db	84
   572  001F5A  20                 	db	32
   573  001F5B  04                 	db	4
   574  001F5C  3F                 	db	63
   575  001F5D  44                 	db	68
   576  001F5E  40                 	db	64
   577  001F5F  20                 	db	32
   578  001F60  3C                 	db	60
   579  001F61  40                 	db	64
   580  001F62  40                 	db	64
   581  001F63  20                 	db	32
   582  001F64  7C                 	db	124
   583  001F65  1C                 	db	28
   584  001F66  20                 	db	32
   585  001F67  40                 	db	64
   586  001F68  20                 	db	32
   587  001F69  1C                 	db	28
   588  001F6A  3C                 	db	60
   589  001F6B  40                 	db	64
   590  001F6C  30                 	db	48
   591  001F6D  40                 	db	64
   592  001F6E  3C                 	db	60
   593  001F6F  44                 	db	68
   594  001F70  28                 	db	40
   595  001F71  10                 	db	16
   596  001F72  28                 	db	40
   597  001F73  44                 	db	68
   598  001F74  0C                 	db	12
   599  001F75  50                 	db	80
   600  001F76  50                 	db	80
   601  001F77  50                 	db	80
   602  001F78  3C                 	db	60
   603  001F79  44                 	db	68
   604  001F7A  64                 	db	100
   605  001F7B  54                 	db	84
   606  001F7C  4C                 	db	76
   607  001F7D  44                 	db	68
   608  001F7E  00                 	db	0
   609  001F7F  08                 	db	8
   610  001F80  36                 	db	54
   611  001F81  41                 	db	65
   612  001F82  00                 	db	0
   613  001F83  00                 	db	0
   614  001F84  00                 	db	0
   615  001F85  7F                 	db	127
   616  001F86  00                 	db	0
   617  001F87  00                 	db	0
   618  001F88  00                 	db	0
   619  001F89  41                 	db	65
   620  001F8A  36                 	db	54
   621  001F8B  08                 	db	8
   622  001F8C  00                 	db	0
   623  001F8D  10                 	db	16
   624  001F8E  08                 	db	8
   625  001F8F  08                 	db	8
   626  001F90  10                 	db	16
   627  001F91  08                 	db	8
   628  001F92  78                 	db	120
   629  001F93  46                 	db	70
   630  001F94  41                 	db	65
   631  001F95  46                 	db	70
   632  001F96  78                 	db	120
   633  001F97                     __end_of_ASCII:
   634                           	opt stack 0
   635  001F97                     _StateProgram:
   636                           	opt stack 0
   637  001F97  00                 	db	0
   638  001F98  00                 	db	0
   639  001F99  00                 	db	0
   640  001F9A  00                 	db	0
   641  001F9B  00                 	db	0
   642  001F9C  00                 	db	0
   643  001F9D  00                 	db	0
   644  001F9E  00                 	db	0
   645  001F9F  00                 	db	0
   646  001FA0  00                 	db	0
   647  001FA1  00                 	db	0
   648  001FA2  00                 	db	0
   649  001FA3  00                 	db	0
   650  001FA4  00                 	db	0
   651  001FA5  00                 	db	0
   652  001FA6  00                 	db	0
   653  001FA7                     __end_of_StateProgram:
   654                           	opt stack 0
   655  001FA7                     generalView@F3411:
   656                           	opt stack 0
   657  001FA7  4D                 	db	77
   658  001FA8  45                 	db	69
   659  001FA9  44                 	db	68
   660  001FAA  49                 	db	73
   661  001FAB  43                 	db	67
   662  001FAC  49                 	db	73
   663  001FAD  4F                 	db	79
   664  001FAE  4E                 	db	78
   665  001FAF  20                 	db	32
   666  001FB0  44                 	db	68
   667  001FB1  45                 	db	69
   668  001FB2  00                 	db	0
   669  001FB3                     __end_ofgeneralView@F3411:
   670                           	opt stack 0
   671  001FB3                     generalView@F3413:
   672                           	opt stack 0
   673  001FB3  54                 	db	84
   674  001FB4  52                 	db	82
   675  001FB5  49                 	db	73
   676  001FB6  46                 	db	70
   677  001FB7  41                 	db	65
   678  001FB8  53                 	db	83
   679  001FB9  49                 	db	73
   680  001FBA  43                 	db	67
   681  001FBB  4F                 	db	79
   682  001FBC  00                 	db	0
   683  001FBD                     __end_ofgeneralView@F3413:
   684                           	opt stack 0
   685  001FBD                     _phasesPower1:
   686                           	opt stack 0
   687  001FBD  00                 	db	0
   688  001FBE  00                 	db	0
   689  001FBF  00                 	db	0
   690  001FC0  00                 	db	0
   691  001FC1  00                 	db	0
   692  001FC2  00                 	db	0
   693  001FC3  00                 	db	0
   694  001FC4  00                 	db	0
   695  001FC5                     __end_of_phasesPower1:
   696                           	opt stack 0
   697  001FC5                     _phasesMainMenu:
   698                           	opt stack 0
   699  001FC5  00                 	db	0
   700  001FC6  00                 	db	0
   701  001FC7  00                 	db	0
   702  001FC8  00                 	db	0
   703  001FC9  00                 	db	0
   704  001FCA  00                 	db	0
   705  001FCB  00                 	db	0
   706  001FCC  00                 	db	0
   707  001FCD                     __end_of_phasesMainMenu:
   708                           	opt stack 0
   709  001FCD                     generalView@F3415:
   710                           	opt stack 0
   711  001FCD  45                 	db	69
   712  001FCE  6E                 	db	110
   713  001FCF  76                 	db	118
   714  001FD0  69                 	db	105
   715  001FD1  61                 	db	97
   716  001FD2  72                 	db	114
   717  001FD3  00                 	db	0
   718  001FD4                     __end_ofgeneralView@F3415:
   719                           	opt stack 0
   720  001FD4                     _phasesPhaseAngle:
   721                           	opt stack 0
   722  001FD4  00                 	db	0
   723  001FD5  00                 	db	0
   724  001FD6  00                 	db	0
   725  001FD7  00                 	db	0
   726  001FD8  00                 	db	0
   727  001FD9  00                 	db	0
   728  001FDA                     __end_of_phasesPhaseAngle:
   729                           	opt stack 0
   730  001FDA                     _phasesRmsVI:
   731                           	opt stack 0
   732  001FDA  00                 	db	0
   733  001FDB  00                 	db	0
   734  001FDC  00                 	db	0
   735  001FDD  00                 	db	0
   736  001FDE  00                 	db	0
   737  001FDF  00                 	db	0
   738  001FE0                     __end_of_phasesRmsVI:
   739                           	opt stack 0
   740  001FE0                     _phasesPower2:
   741                           	opt stack 0
   742  001FE0  00                 	db	0
   743  001FE1  00                 	db	0
   744  001FE2  00                 	db	0
   745  001FE3  00                 	db	0
   746  001FE4  00                 	db	0
   747  001FE5  00                 	db	0
   748  001FE6                     __end_of_phasesPower2:
   749                           	opt stack 0
   750  001FE6                     sendData@F3425:
   751                           	opt stack 0
   752  001FE6  54                 	db	84
   753  001FE7  45                 	db	69
   754  001FE8  53                 	db	83
   755  001FE9  54                 	db	84
   756  001FEA  00                 	db	0
   757  001FEB                     __end_ofsendData@F3425:
   758                           	opt stack 0
   759  001FEB                     generalView@F3417:
   760                           	opt stack 0
   761  001FEB  4D                 	db	77
   762  001FEC  65                 	db	101
   763  001FED  6E                 	db	110
   764  001FEE  75                 	db	117
   765  001FEF  00                 	db	0
   766  001FF0                     __end_ofgeneralView@F3417:
   767                           	opt stack 0
   768  001FF0                     _phasesTemperature:
   769                           	opt stack 0
   770  001FF0  00                 	db	0
   771  001FF1  00                 	db	0
   772  001FF2  00                 	db	0
   773  001FF3  00                 	db	0
   774  001FF4                     __end_of_phasesTemperature:
   775                           	opt stack 0
   776  001FF4                     _phasesFrequency:
   777                           	opt stack 0
   778  001FF4  00                 	db	0
   779  001FF5  00                 	db	0
   780  001FF6  00                 	db	0
   781  001FF7  00                 	db	0
   782  001FF8                     __end_of_phasesFrequency:
   783                           	opt stack 0
   784  001FF8                     _phasesPowerFactor:
   785                           	opt stack 0
   786  001FF8  00                 	db	0
   787  001FF9  00                 	db	0
   788  001FFA  00                 	db	0
   789  001FFB  00                 	db	0
   790  001FFC                     __end_of_phasesPowerFactor:
   791                           	opt stack 0
   792  001FFC                     _SPI_Config:
   793                           	opt stack 0
   794  001FFC  00                 	db	0
   795  001FFD  00                 	db	0
   796  001FFE  02                 	db	2
   797  001FFF                     __end_of_SPI_Config:
   798                           	opt stack 0
   799  0000                     _ANSEL0bits	set	4024
   800  0000                     _PORTCbits	set	3970
   801  0000                     _PORTAbits	set	3968
   802  0000                     _TXREG	set	4013
   803  0000                     _BAUDCTLbits	set	4010
   804  0000                     _RCSTAbits	set	4011
   805  0000                     _TXSTAbits	set	4012
   806  0000                     _SPBRG	set	4015
   807  0000                     _SSPBUF	set	4041
   808  0000                     _PIR1bits	set	3998
   809  0000                     _SSPCON	set	4038
   810  0000                     _SSPCONbits	set	4038
   811  0000                     _SSPSTATbits	set	4039
   812  0000                     _SSPSTAT	set	4039
   813  0000                     _TRISCbits	set	3988
   814  0000                     _PORTC	set	3970
   815  0000                     _PORTB	set	3969
   816  0000                     _PORTA	set	3968
   817  0000                     _ANSEL0	set	4024
   818  0000                     _TRISC	set	3988
   819  0000                     _TRISB	set	3987
   820  0000                     _TRISA	set	3986
   821  0000                     _OSCCON	set	4051
   822                           
   823                           ; #config settings
   824  001FFF  00                 	db	0	; dummy byte at the end
   825  0000                     
   826                           	psect	cinit
   827  0019D6                     __pcinit:
   828                           	opt stack 0
   829  0019D6                     start_initialization:
   830                           	opt stack 0
   831  0019D6                     __initialization:
   832                           	opt stack 0
   833                           
   834                           ; Initialize objects allocated to BANK0 (11 bytes)
   835                           ; load TBLPTR registers with __pidataBANK0
   836  0019D6  0E29               	movlw	low __pidataBANK0
   837  0019D8  6EF6               	movwf	tblptrl,c
   838  0019DA  0E18               	movlw	high __pidataBANK0
   839  0019DC  6EF7               	movwf	tblptrh,c
   840  0019DE  0E00               	movlw	low (__pidataBANK0 shr (0+16))
   841  0019E0  6EF8               	movwf	tblptru,c
   842  0019E2  EE00  F081         	lfsr	0,__pdataBANK0
   843  0019E6  EE10 F00B          	lfsr	1,11
   844  0019EA                     copy_data0:
   845  0019EA  0009               	tblrd		*+
   846  0019EC  CFF5 FFEE          	movff	tablat,postinc0
   847  0019F0  50E5               	movf	postdec1,w,c
   848  0019F2  50E1               	movf	fsr1l,w,c
   849  0019F4  E1FA               	bnz	copy_data0
   850                           
   851                           ; Clear objects allocated to BANK0 (33 bytes)
   852  0019F6  EE00  F060         	lfsr	0,__pbssBANK0
   853  0019FA  0E21               	movlw	33
   854  0019FC                     clear_0:
   855  0019FC  6AEE               	clrf	postinc0,c
   856  0019FE  06E8               	decf	wreg,f,c
   857  001A00  E1FD               	bnz	clear_0
   858                           
   859                           ; Clear objects allocated to COMRAM (69 bytes)
   860  001A02  EE00  F001         	lfsr	0,__pbssCOMRAM
   861  001A06  0E45               	movlw	69
   862  001A08                     clear_1:
   863  001A08  6AEE               	clrf	postinc0,c
   864  001A0A  06E8               	decf	wreg,f,c
   865  001A0C  E1FD               	bnz	clear_1
   866  001A0E                     end_of_initialization:
   867                           	opt stack 0
   868  001A0E                     __end_of__initialization:
   869                           	opt stack 0
   870  001A0E  0E00               	movlw	low (__Lmediumconst shr (0+16))
   871  001A10  6EF8               	movwf	tblptru,c
   872  001A12  0100               	movlb	0
   873  001A14  EF30  F00D         	goto	_main	;jump to C main() function
   874                           tblptru	equ	0xFF8
   875                           tblptrh	equ	0xFF7
   876                           tblptrl	equ	0xFF6
   877                           tablat	equ	0xFF5
   878                           postinc0	equ	0xFEE
   879                           wreg	equ	0xFE8
   880                           postdec1	equ	0xFE5
   881                           fsr1l	equ	0xFE1
   882                           
   883                           	psect	bssCOMRAM
   884  000001                     __pbssCOMRAM:
   885                           	opt stack 0
   886  000001                     expBASE10@value:
   887                           	opt stack 0
   888  000001                     	ds	4
   889  000005                     phPower2@currentPower2_2:
   890                           	opt stack 0
   891  000005                     	ds	3
   892  000008                     fhPower2@currentPower2_1:
   893                           	opt stack 0
   894  000008                     	ds	3
   895  00000B                     exitPower1@currentPower1_4:
   896                           	opt stack 0
   897  00000B                     	ds	3
   898  00000E                     vectorPower1@currentPower1_3:
   899                           	opt stack 0
   900  00000E                     	ds	3
   901  000011                     phPower1@currentPower1_2:
   902                           	opt stack 0
   903  000011                     	ds	3
   904  000014                     typesPower1@currentPower1_1:
   905                           	opt stack 0
   906  000014                     	ds	3
   907  000017                     stateTemperature@phaseTemperature:
   908                           	opt stack 0
   909  000017                     	ds	3
   910  00001A                     stateFrequency@phaseFrequency:
   911                           	opt stack 0
   912  00001A                     	ds	3
   913  00001D                     statePhaseAngle@phasePhaseAngle:
   914                           	opt stack 0
   915  00001D                     	ds	3
   916  000020                     stateRmsVI@phaseRmsVI:
   917                           	opt stack 0
   918  000020                     	ds	3
   919  000023                     statePower2@phasePower2:
   920                           	opt stack 0
   921  000023                     	ds	3
   922  000026                     statePower1@phasePower1:
   923                           	opt stack 0
   924  000026                     	ds	3
   925  000029                     exitPowerFactor@currentPowerFactor2:
   926                           	opt stack 0
   927  000029                     	ds	2
   928  00002B                     phPowerFactor@currentPowerFactor1:
   929                           	opt stack 0
   930  00002B                     	ds	2
   931  00002D                     sendData@currentMainMenu4:
   932                           	opt stack 0
   933  00002D                     	ds	2
   934  00002F                     viewMenu@currentMainMenu3:
   935                           	opt stack 0
   936  00002F                     	ds	2
   937  000031                     generalView@currentMainMenu2:
   938                           	opt stack 0
   939  000031                     	ds	2
   940  000033                     initialLoad@currentMainMenu1:
   941                           	opt stack 0
   942  000033                     	ds	2
   943  000035                     statePowerFactor@phasePowerFactor:
   944                           	opt stack 0
   945  000035                     	ds	2
   946  000037                     stateMainMenu@phaseMain:
   947                           	opt stack 0
   948  000037                     	ds	2
   949  000039                     _FlagButton3:
   950                           	opt stack 0
   951  000039                     	ds	1
   952  00003A                     _FlagButton2:
   953                           	opt stack 0
   954  00003A                     	ds	1
   955  00003B                     _FlagButton1:
   956                           	opt stack 0
   957  00003B                     	ds	1
   958  00003C                     generalView@lockWrite:
   959                           	opt stack 0
   960  00003C                     	ds	1
   961  00003D                     generalView@lockClear:
   962                           	opt stack 0
   963  00003D                     	ds	1
   964  00003E                     stateTemperature@phase:
   965                           	opt stack 0
   966  00003E                     	ds	1
   967  00003F                     stateFrequency@phase:
   968                           	opt stack 0
   969  00003F                     	ds	1
   970  000040                     statePhaseAngle@phase:
   971                           	opt stack 0
   972  000040                     	ds	1
   973  000041                     statePowerFactor@phase:
   974                           	opt stack 0
   975  000041                     	ds	1
   976  000042                     stateRmsVI@phase:
   977                           	opt stack 0
   978  000042                     	ds	1
   979  000043                     statePower2@phase:
   980                           	opt stack 0
   981  000043                     	ds	1
   982  000044                     statePower1@phase:
   983                           	opt stack 0
   984  000044                     	ds	1
   985  000045                     stateMainMenu@phase:
   986                           	opt stack 0
   987  000045                     	ds	1
   988                           tblptru	equ	0xFF8
   989                           tblptrh	equ	0xFF7
   990                           tblptrl	equ	0xFF6
   991                           tablat	equ	0xFF5
   992                           postinc0	equ	0xFEE
   993                           wreg	equ	0xFE8
   994                           postdec1	equ	0xFE5
   995                           fsr1l	equ	0xFE1
   996                           
   997                           	psect	bssBANK0
   998  000060                     __pbssBANK0:
   999                           	opt stack 0
  1000  000060                     exitTemperature@currentTemperature2:
  1001                           	opt stack 0
  1002  000060                     	ds	3
  1003  000063                     showTemperature@currentTemperature1:
  1004                           	opt stack 0
  1005  000063                     	ds	3
  1006  000066                     exitFrequency@currentFrequency2:
  1007                           	opt stack 0
  1008  000066                     	ds	3
  1009  000069                     showFrequency@currentFrequency1:
  1010                           	opt stack 0
  1011  000069                     	ds	3
  1012  00006C                     exitPhaseAngle@currentPhaseAngle3:
  1013                           	opt stack 0
  1014  00006C                     	ds	3
  1015  00006F                     viPhaseAngle@currentPhaseAngle2:
  1016                           	opt stack 0
  1017  00006F                     	ds	3
  1018  000072                     phPhaseAngle@currentPhaseAngle1:
  1019                           	opt stack 0
  1020  000072                     	ds	3
  1021  000075                     exitRmsVI@currentRms3:
  1022                           	opt stack 0
  1023  000075                     	ds	3
  1024  000078                     neutralRmsVI@currentRms2:
  1025                           	opt stack 0
  1026  000078                     	ds	3
  1027  00007B                     phRmsVI@currentRms1:
  1028                           	opt stack 0
  1029  00007B                     	ds	3
  1030  00007E                     exitPower2@currentPower2_3:
  1031                           	opt stack 0
  1032  00007E                     	ds	3
  1033                           tblptru	equ	0xFF8
  1034                           tblptrh	equ	0xFF7
  1035                           tblptrl	equ	0xFF6
  1036                           tablat	equ	0xFF5
  1037                           postinc0	equ	0xFEE
  1038                           wreg	equ	0xFE8
  1039                           postdec1	equ	0xFE5
  1040                           fsr1l	equ	0xFE1
  1041                           
  1042                           	psect	dataBANK0
  1043  000081                     __pdataBANK0:
  1044                           	opt stack 0
  1045  000081                     main@F3300:
  1046                           	opt stack 0
  1047  000081                     	ds	11
  1048                           tblptru	equ	0xFF8
  1049                           tblptrh	equ	0xFF7
  1050                           tblptrl	equ	0xFF6
  1051                           tablat	equ	0xFF5
  1052                           postinc0	equ	0xFEE
  1053                           wreg	equ	0xFE8
  1054                           postdec1	equ	0xFE5
  1055                           fsr1l	equ	0xFE1
  1056                           
  1057                           	psect	cstackCOMRAM
  1058  000046                     __pcstackCOMRAM:
  1059                           	opt stack 0
  1060  000046                     ?___wmul:
  1061                           	opt stack 0
  1062  000046                     GPIO_sourceClock@clk:
  1063                           	opt stack 0
  1064  000046                     GPIO_dataDirectionPIN@pin:
  1065                           	opt stack 0
  1066  000046                     GPIO_setPIN@pin:
  1067                           	opt stack 0
  1068  000046                     GPIO_clearPIN@pin:
  1069                           	opt stack 0
  1070  000046                     SPI_enableClock@cpol:
  1071                           	opt stack 0
  1072  000046                     SPI_enablePins@serial:
  1073                           	opt stack 0
  1074  000046                     SPI_write@data:
  1075                           	opt stack 0
  1076  000046                     ___wmul@multiplier:
  1077                           	opt stack 0
  1078  000046                     delay@delay:
  1079                           	opt stack 0
  1080  000046                     LCD_delay@counter:
  1081                           	opt stack 0
  1082                           
  1083                           ; 4 bytes @ 0x0
  1084  000046                     	ds	1
  1085  000047                     ??_GPIO_setPIN:
  1086  000047                     ??_GPIO_clearPIN:
  1087  000047                     GPIO_dataDirectionPIN@state:
  1088                           	opt stack 0
  1089  000047                     SPI_enableClock@phase:
  1090                           	opt stack 0
  1091                           
  1092                           ; 1 bytes @ 0x1
  1093  000047                     	ds	1
  1094  000048                     ??_GPIO_dataDirectionPIN:
  1095  000048                     SPI_init@SPI_Config:
  1096                           	opt stack 0
  1097  000048                     ___wmul@multiplicand:
  1098                           	opt stack 0
  1099                           
  1100                           ; 2 bytes @ 0x2
  1101  000048                     	ds	1
  1102  000049                     GPIO_setPIN@portName:
  1103                           	opt stack 0
  1104  000049                     GPIO_clearPIN@portName:
  1105                           	opt stack 0
  1106                           
  1107                           ; 1 bytes @ 0x3
  1108  000049                     	ds	1
  1109  00004A                     ??_SPI_init:
  1110  00004A                     GPIO_dataDirectionPIN@portName:
  1111                           	opt stack 0
  1112  00004A                     ___wmul@product:
  1113                           	opt stack 0
  1114  00004A                     delay@counter:
  1115                           	opt stack 0
  1116                           
  1117                           ; 4 bytes @ 0x4
  1118  00004A                     	ds	1
  1119  00004B                     
  1120                           ; 1 bytes @ 0x5
  1121  00004B                     	ds	1
  1122  00004C                     LCDNokia_writeByte@data:
  1123                           	opt stack 0
  1124                           
  1125                           ; 1 bytes @ 0x6
  1126  00004C                     	ds	1
  1127  00004D                     LCDNokia_writeByte@DataOrCmd:
  1128                           	opt stack 0
  1129                           
  1130                           ; 1 bytes @ 0x7
  1131  00004D                     	ds	1
  1132  00004E                     ??_LCDNokia_sendChar:
  1133  00004E                     LCDNokia_gotoXY@y:
  1134                           	opt stack 0
  1135                           
  1136                           ; 1 bytes @ 0x8
  1137  00004E                     	ds	1
  1138  00004F                     LCDNokia_gotoXY@x:
  1139                           	opt stack 0
  1140                           
  1141                           ; 1 bytes @ 0x9
  1142  00004F                     	ds	1
  1143  000050                     LCDNokia_sendChar@character:
  1144                           	opt stack 0
  1145  000050                     LCDNokia_clear@index:
  1146                           	opt stack 0
  1147                           
  1148                           ; 2 bytes @ 0xA
  1149  000050                     	ds	1
  1150  000051                     LCDNokia_sendChar@index:
  1151                           	opt stack 0
  1152                           
  1153                           ; 2 bytes @ 0xB
  1154  000051                     	ds	2
  1155  000053                     main@arrayTest:
  1156                           	opt stack 0
  1157                           
  1158                           ; 11 bytes @ 0xD
  1159  000053                     	ds	11
  1160  00005E                     main@currentState:
  1161                           	opt stack 0
  1162                           
  1163                           ; 1 bytes @ 0x18
  1164  00005E                     	ds	1
  1165  00005F                     main@test:
  1166                           	opt stack 0
  1167                           
  1168                           ; 1 bytes @ 0x19
  1169  00005F                     	ds	1
  1170                           tblptru	equ	0xFF8
  1171                           tblptrh	equ	0xFF7
  1172                           tblptrl	equ	0xFF6
  1173                           tablat	equ	0xFF5
  1174                           postinc0	equ	0xFEE
  1175                           wreg	equ	0xFE8
  1176                           postdec1	equ	0xFE5
  1177                           fsr1l	equ	0xFE1
  1178                           
  1179 ;;
  1180 ;;Main: autosize = 0, tempsize = 0, incstack = 0, save=0
  1181 ;;
  1182 ;; *************** function _main *****************
  1183 ;; Defined at:
  1184 ;;		line 89 in file "main.c"
  1185 ;; Parameters:    Size  Location     Type
  1186 ;;		None
  1187 ;; Auto vars:     Size  Location     Type
  1188 ;;  arrayTest      11   13[COMRAM] unsigned char [11]
  1189 ;;  mainFunction    2    0        PTR FTN()enum E3248
  1190 ;;  test            1   25[COMRAM] unsigned char 
  1191 ;;  currentState    1   24[COMRAM] enum E3248
  1192 ;; Return value:  Size  Location     Type
  1193 ;;                  1    wreg      void 
  1194 ;; Registers used:
  1195 ;;		wreg, fsr1l, fsr1h, fsr2l, fsr2h, status,2, status,0, tblptrl, tblptrh, tblptru, prodl, prodh, cstack
  1196 ;; Tracked objects:
  1197 ;;		On entry : 0/0
  1198 ;;		On exit  : 0/0
  1199 ;;		Unchanged: 0/0
  1200 ;; Data sizes:     COMRAM   BANK0   BANK1   BANK2
  1201 ;;      Params:         0       0       0       0
  1202 ;;      Locals:        13       0       0       0
  1203 ;;      Temps:          0       0       0       0
  1204 ;;      Totals:        13       0       0       0
  1205 ;;Total ram usage:       13 bytes
  1206 ;; Hardware stack levels required when called:    4
  1207 ;; This function calls:
  1208 ;;		_ButtonInt_config
  1209 ;;		_GPIO_sourceClock
  1210 ;;		_LCDNokia_clear
  1211 ;;		_LCDNokia_init
  1212 ;;		_LCDNokia_sendChar
  1213 ;;		_SPI_init
  1214 ;;		_delay
  1215 ;; This function is called by:
  1216 ;;		Startup code after reset
  1217 ;; This function uses a non-reentrant model
  1218 ;;
  1219                           
  1220                           	psect	text0
  1221  001A60                     __ptext0:
  1222                           	opt stack 0
  1223  001A60                     _main:
  1224                           	opt stack 27
  1225                           
  1226                           ;main.c: 92: States_MenuType currentState = MAIN_MENU;
  1227                           
  1228                           ;incstack = 0
  1229  001A60  0E00               	movlw	0
  1230  001A62  6E5E               	movwf	main@currentState,c
  1231                           
  1232                           ;main.c: 93: States_MenuType(*mainFunctions)(void);
  1233                           ;main.c: 96: GPIO_sourceClock(CLK_8MHZ);
  1234  001A64  0E00               	movlw	0
  1235  001A66  EC5A  F00D         	call	_GPIO_sourceClock
  1236                           
  1237                           ;main.c: 98: SPI_init(&SPI_Config);
  1238  001A6A  0EFC               	movlw	low _SPI_Config
  1239  001A6C  6E48               	movwf	SPI_init@SPI_Config,c
  1240  001A6E  0E1F               	movlw	high _SPI_Config
  1241  001A70  6E49               	movwf	SPI_init@SPI_Config+1,c
  1242  001A72  EC0C  F00D         	call	_SPI_init	;wreg free
  1243                           
  1244                           ;main.c: 99: LCDNokia_init();
  1245  001A76  ECF5  F00D         	call	_LCDNokia_init	;wreg free
  1246                           
  1247                           ;main.c: 100: LCDNokia_clear();
  1248  001A7A  ECB0  F00C         	call	_LCDNokia_clear	;wreg free
  1249                           
  1250                           ;main.c: 102: ButtonInt_config();
  1251  001A7E  EC7F  F00C         	call	_ButtonInt_config	;wreg free
  1252                           
  1253                           ;main.c: 104: uint8_t test = 'o';
  1254  001A82  0E6F               	movlw	111
  1255  001A84  6E5F               	movwf	main@test,c
  1256                           
  1257                           ;main.c: 105: uint8_t arrayTest[] = "Hola Mundo";
  1258  001A86  EE20  F081         	lfsr	2,main@F3300
  1259  001A8A  EE10  F053         	lfsr	1,main@arrayTest
  1260  001A8E  0E0A               	movlw	10
  1261  001A90                     u931:
  1262  001A90  CFDB FFE3          	movff	plusw2,plusw1
  1263  001A94  06E8               	decf	wreg,f,c
  1264  001A96  E2FC               	bc	u931
  1265  001A98                     
  1266                           ;main.c: 108: {
  1267                           ;main.c: 109: LCDNokia_sendChar(test);
  1268  001A98  505F               	movf	main@test,w,c
  1269  001A9A  EC2E  F00E         	call	_LCDNokia_sendChar
  1270                           
  1271                           ;main.c: 111: delay(50000);
  1272  001A9E  0E50               	movlw	80
  1273  001AA0  6E46               	movwf	delay@delay,c
  1274  001AA2  0EC3               	movlw	195
  1275  001AA4  6E47               	movwf	delay@delay+1,c
  1276  001AA6  0E00               	movlw	0
  1277  001AA8  6E48               	movwf	delay@delay+2,c
  1278  001AAA  0E00               	movlw	0
  1279  001AAC  6E49               	movwf	delay@delay+3,c
  1280  001AAE  EC55  F00C         	call	_delay	;wreg free
  1281                           
  1282                           ;main.c: 117: }
  1283  001AB2  D7F2               	goto	l41
  1284  001AB4                     __end_of_main:
  1285                           	opt stack 0
  1286                           tblptru	equ	0xFF8
  1287                           tblptrh	equ	0xFF7
  1288                           tblptrl	equ	0xFF6
  1289                           tablat	equ	0xFF5
  1290                           postinc0	equ	0xFEE
  1291                           wreg	equ	0xFE8
  1292                           postdec1	equ	0xFE5
  1293                           plusw1	equ	0xFE3
  1294                           fsr1l	equ	0xFE1
  1295                           plusw2	equ	0xFDB
  1296                           
  1297 ;; *************** function _delay *****************
  1298 ;; Defined at:
  1299 ;;		line 189 in file "GPIO.c"
  1300 ;; Parameters:    Size  Location     Type
  1301 ;;  delay           4    0[COMRAM] unsigned long 
  1302 ;; Auto vars:     Size  Location     Type
  1303 ;;  counter         4    4[COMRAM] volatile unsigned long 
  1304 ;; Return value:  Size  Location     Type
  1305 ;;                  1    wreg      void 
  1306 ;; Registers used:
  1307 ;;		wreg, status,2, status,0
  1308 ;; Tracked objects:
  1309 ;;		On entry : 0/0
  1310 ;;		On exit  : 0/0
  1311 ;;		Unchanged: 0/0
  1312 ;; Data sizes:     COMRAM   BANK0   BANK1   BANK2
  1313 ;;      Params:         4       0       0       0
  1314 ;;      Locals:         4       0       0       0
  1315 ;;      Temps:          0       0       0       0
  1316 ;;      Totals:         8       0       0       0
  1317 ;;Total ram usage:        8 bytes
  1318 ;; Hardware stack levels used:    1
  1319 ;; This function calls:
  1320 ;;		Nothing
  1321 ;; This function is called by:
  1322 ;;		_main
  1323 ;;		_UART_putString
  1324 ;; This function uses a non-reentrant model
  1325 ;;
  1326                           
  1327                           	psect	text1
  1328  0018AA                     __ptext1:
  1329                           	opt stack 0
  1330  0018AA                     _delay:
  1331                           	opt stack 30
  1332                           
  1333                           ;GPIO.c: 191: volatile uint32_t counter;
  1334                           ;GPIO.c: 193: for(counter = delay; counter > 0; counter--)
  1335                           
  1336                           ;incstack = 0
  1337  0018AA  C046  F04A         	movff	delay@delay,delay@counter	;volatile
  1338  0018AE  C047  F04B         	movff	delay@delay+1,delay@counter+1	;volatile
  1339  0018B2  C048  F04C         	movff	delay@delay+2,delay@counter+2	;volatile
  1340  0018B6  C049  F04D         	movff	delay@delay+3,delay@counter+3	;volatile
  1341  0018BA                     l2122:
  1342  0018BA  504A               	movf	delay@counter,w,c	;volatile
  1343  0018BC  104B               	iorwf	delay@counter+1,w,c	;volatile
  1344  0018BE  104C               	iorwf	delay@counter+2,w,c	;volatile
  1345  0018C0  104D               	iorwf	delay@counter+3,w,c	;volatile
  1346  0018C2  B4D8               	btfsc	status,2,c
  1347  0018C4  0012               	return	
  1348                           
  1349                           ;GPIO.c: 194: {}
  1350  0018C6  064A               	decf	delay@counter,f,c	;volatile
  1351  0018C8  0E00               	movlw	0
  1352  0018CA  5A4B               	subwfb	delay@counter+1,f,c	;volatile
  1353  0018CC  5A4C               	subwfb	delay@counter+2,f,c	;volatile
  1354  0018CE  5A4D               	subwfb	delay@counter+3,f,c	;volatile
  1355  0018D0  D7F4               	goto	l2122
  1356  0018D2                     __end_of_delay:
  1357                           	opt stack 0
  1358                           tblptru	equ	0xFF8
  1359                           tblptrh	equ	0xFF7
  1360                           tblptrl	equ	0xFF6
  1361                           tablat	equ	0xFF5
  1362                           postinc0	equ	0xFEE
  1363                           wreg	equ	0xFE8
  1364                           postdec1	equ	0xFE5
  1365                           plusw1	equ	0xFE3
  1366                           fsr1l	equ	0xFE1
  1367                           plusw2	equ	0xFDB
  1368                           status	equ	0xFD8
  1369                           
  1370 ;; *************** function _SPI_init *****************
  1371 ;; Defined at:
  1372 ;;		line 80 in file "SPI.c"
  1373 ;; Parameters:    Size  Location     Type
  1374 ;;  SPI_Config      2    2[COMRAM] PTR const struct .
  1375 ;;		 -> SPI_Config(3), 
  1376 ;; Auto vars:     Size  Location     Type
  1377 ;;		None
  1378 ;; Return value:  Size  Location     Type
  1379 ;;                  1    wreg      void 
  1380 ;; Registers used:
  1381 ;;		wreg, status,2, status,0, tblptrl, tblptrh, tblptru, cstack
  1382 ;; Tracked objects:
  1383 ;;		On entry : 0/0
  1384 ;;		On exit  : 0/0
  1385 ;;		Unchanged: 0/0
  1386 ;; Data sizes:     COMRAM   BANK0   BANK1   BANK2
  1387 ;;      Params:         2       0       0       0
  1388 ;;      Locals:         0       0       0       0
  1389 ;;      Temps:          2       0       0       0
  1390 ;;      Totals:         4       0       0       0
  1391 ;;Total ram usage:        4 bytes
  1392 ;; Hardware stack levels used:    1
  1393 ;; Hardware stack levels required when called:    1
  1394 ;; This function calls:
  1395 ;;		_SPI_enableClock
  1396 ;;		_SPI_enablePins
  1397 ;; This function is called by:
  1398 ;;		_main
  1399 ;; This function uses a non-reentrant model
  1400 ;;
  1401                           
  1402                           	psect	text2
  1403  001A18                     __ptext2:
  1404                           	opt stack 0
  1405  001A18                     _SPI_init:
  1406                           	opt stack 29
  1407                           
  1408                           ;SPI.c: 82: SPI_enableClock(SPI_Config->SPI_Polarity, SPI_Config->SPI_Phase);
  1409                           
  1410                           ;incstack = 0
  1411  001A18  0E01               	movlw	1
  1412  001A1A  2448               	addwf	SPI_init@SPI_Config,w,c
  1413  001A1C  6E4A               	movwf	??_SPI_init& (0+255),c
  1414  001A1E  0E00               	movlw	0
  1415  001A20  2049               	addwfc	SPI_init@SPI_Config+1,w,c
  1416  001A22  6E4B               	movwf	(??_SPI_init+1)& (0+255),c
  1417  001A24  C04A  FFF6         	movff	??_SPI_init,tblptrl
  1418  001A28  C04B  FFF7         	movff	??_SPI_init+1,tblptrh
  1419  001A2C                     	if	0	;tblptru may be non-zero
  1420  001A2C                     	endif
  1421  001A2C                     	if	0	;tblptru may be non-zero
  1422  001A2C                     	endif
  1423  001A2C  0008               	tblrd		*
  1424  001A2E  CFF5 F046          	movff	tablat,SPI_enableClock@cpol
  1425  001A32  C048  FFF6         	movff	SPI_init@SPI_Config,tblptrl
  1426  001A36  C049  FFF7         	movff	SPI_init@SPI_Config+1,tblptrh
  1427  001A3A                     	if	0	;tblptru may be non-zero
  1428  001A3A                     	endif
  1429  001A3A                     	if	0	;tblptru may be non-zero
  1430  001A3A                     	endif
  1431  001A3A  0008               	tblrd		*
  1432  001A3C  50F5               	movf	tablat,w,c
  1433  001A3E  ECCC  F00C         	call	_SPI_enableClock
  1434                           
  1435                           ;SPI.c: 83: SPI_enablePins(SPI_Config->SPI_Clk);
  1436  001A42  0E02               	movlw	2
  1437  001A44  2448               	addwf	SPI_init@SPI_Config,w,c
  1438  001A46  6E4A               	movwf	??_SPI_init& (0+255),c
  1439  001A48  0E00               	movlw	0
  1440  001A4A  2049               	addwfc	SPI_init@SPI_Config+1,w,c
  1441  001A4C  6E4B               	movwf	(??_SPI_init+1)& (0+255),c
  1442  001A4E  C04A  FFF6         	movff	??_SPI_init,tblptrl
  1443  001A52  C04B  FFF7         	movff	??_SPI_init+1,tblptrh
  1444  001A56                     	if	0	;tblptru may be non-zero
  1445  001A56                     	endif
  1446  001A56                     	if	0	;tblptru may be non-zero
  1447  001A56                     	endif
  1448  001A56  0008               	tblrd		*
  1449  001A58  50F5               	movf	tablat,w,c
  1450  001A5A  EC69  F00C         	call	_SPI_enablePins
  1451  001A5E  0012               	return		;funcret
  1452  001A60                     __end_of_SPI_init:
  1453                           	opt stack 0
  1454                           tblptru	equ	0xFF8
  1455                           tblptrh	equ	0xFF7
  1456                           tblptrl	equ	0xFF6
  1457                           tablat	equ	0xFF5
  1458                           postinc0	equ	0xFEE
  1459                           wreg	equ	0xFE8
  1460                           postdec1	equ	0xFE5
  1461                           plusw1	equ	0xFE3
  1462                           fsr1l	equ	0xFE1
  1463                           plusw2	equ	0xFDB
  1464                           status	equ	0xFD8
  1465                           
  1466 ;; *************** function _SPI_enablePins *****************
  1467 ;; Defined at:
  1468 ;;		line 56 in file "SPI.c"
  1469 ;; Parameters:    Size  Location     Type
  1470 ;;  serial          1    wreg     enum E3069
  1471 ;; Auto vars:     Size  Location     Type
  1472 ;;  serial          1    0[COMRAM] enum E3069
  1473 ;; Return value:  Size  Location     Type
  1474 ;;                  1    wreg      void 
  1475 ;; Registers used:
  1476 ;;		wreg, status,2, status,0
  1477 ;; Tracked objects:
  1478 ;;		On entry : 0/0
  1479 ;;		On exit  : 0/0
  1480 ;;		Unchanged: 0/0
  1481 ;; Data sizes:     COMRAM   BANK0   BANK1   BANK2
  1482 ;;      Params:         0       0       0       0
  1483 ;;      Locals:         1       0       0       0
  1484 ;;      Temps:          0       0       0       0
  1485 ;;      Totals:         1       0       0       0
  1486 ;;Total ram usage:        1 bytes
  1487 ;; Hardware stack levels used:    1
  1488 ;; This function calls:
  1489 ;;		Nothing
  1490 ;; This function is called by:
  1491 ;;		_SPI_init
  1492 ;; This function uses a non-reentrant model
  1493 ;;
  1494                           
  1495                           	psect	text3
  1496  0018D2                     __ptext3:
  1497                           	opt stack 0
  1498  0018D2                     _SPI_enablePins:
  1499                           	opt stack 29
  1500                           
  1501                           ;incstack = 0
  1502                           ;SPI_enablePins@serial stored from wreg
  1503  0018D2  6E46               	movwf	SPI_enablePins@serial,c
  1504                           
  1505                           ;SPI.c: 58: switch(serial)
  1506  0018D4  D007               	goto	l174
  1507  0018D6                     
  1508                           ;SPI.c: 61: SSPCON &= (0x00);
  1509  0018D6  0E00               	movlw	0
  1510  0018D8  6EC6               	movwf	4038,c	;volatile
  1511                           
  1512                           ;SPI.c: 62: break;
  1513  0018DA  D00E               	goto	l176
  1514  0018DC                     
  1515                           ;SPI.c: 64: SSPCON |= (0x01);
  1516  0018DC  80C6               	bsf	4038,0,c	;volatile
  1517                           
  1518                           ;SPI.c: 65: break;
  1519  0018DE  D00C               	goto	l176
  1520  0018E0                     
  1521                           ;SPI.c: 67: SSPCON |= (0x02);
  1522  0018E0  82C6               	bsf	4038,1,c	;volatile
  1523                           
  1524                           ;SPI.c: 71: }
  1525                           
  1526                           ;SPI.c: 70: break;
  1527                           
  1528                           ;SPI.c: 69: default:
  1529                           
  1530                           ;SPI.c: 68: break;
  1531  0018E2  D00A               	goto	l176
  1532  0018E4                     l174:
  1533  0018E4  5046               	movf	SPI_enablePins@serial,w,c
  1534                           
  1535                           ; Switch size 1, requested type "space"
  1536                           ; Number of cases is 3, Range of values is 0 to 2
  1537                           ; switch strategies available:
  1538                           ; Name         Instructions Cycles
  1539                           ; simple_byte           10     6 (average)
  1540                           ;	Chosen strategy is simple_byte
  1541  0018E6  0A00               	xorlw	0	; case 0
  1542  0018E8  B4D8               	btfsc	status,2,c
  1543  0018EA  D7F5               	goto	l175
  1544  0018EC  0A01               	xorlw	1	; case 1
  1545  0018EE  B4D8               	btfsc	status,2,c
  1546  0018F0  D7F5               	goto	l177
  1547  0018F2  0A03               	xorlw	3	; case 2
  1548  0018F4  B4D8               	btfsc	status,2,c
  1549  0018F6  D7F4               	goto	l178
  1550  0018F8                     l176:
  1551                           
  1552                           ;SPI.c: 74: SSPCON |= (0x20);
  1553  0018F8  8AC6               	bsf	4038,5,c	;volatile
  1554                           
  1555                           ;SPI.c: 77: PIR1bits.SSPIF = 0;
  1556  0018FA  969E               	bcf	3998,3,c	;volatile
  1557  0018FC  0012               	return		;funcret
  1558  0018FE                     __end_of_SPI_enablePins:
  1559                           	opt stack 0
  1560                           tblptru	equ	0xFF8
  1561                           tblptrh	equ	0xFF7
  1562                           tblptrl	equ	0xFF6
  1563                           tablat	equ	0xFF5
  1564                           postinc0	equ	0xFEE
  1565                           wreg	equ	0xFE8
  1566                           postdec1	equ	0xFE5
  1567                           plusw1	equ	0xFE3
  1568                           fsr1l	equ	0xFE1
  1569                           plusw2	equ	0xFDB
  1570                           status	equ	0xFD8
  1571                           
  1572 ;; *************** function _SPI_enableClock *****************
  1573 ;; Defined at:
  1574 ;;		line 14 in file "SPI.c"
  1575 ;; Parameters:    Size  Location     Type
  1576 ;;  phase           1    wreg     enum E3065
  1577 ;;  cpol            1    0[COMRAM] enum E3061
  1578 ;; Auto vars:     Size  Location     Type
  1579 ;;  phase           1    1[COMRAM] enum E3065
  1580 ;; Return value:  Size  Location     Type
  1581 ;;                  1    wreg      void 
  1582 ;; Registers used:
  1583 ;;		wreg, status,2, status,0
  1584 ;; Tracked objects:
  1585 ;;		On entry : 0/0
  1586 ;;		On exit  : 0/0
  1587 ;;		Unchanged: 0/0
  1588 ;; Data sizes:     COMRAM   BANK0   BANK1   BANK2
  1589 ;;      Params:         1       0       0       0
  1590 ;;      Locals:         1       0       0       0
  1591 ;;      Temps:          0       0       0       0
  1592 ;;      Totals:         2       0       0       0
  1593 ;;Total ram usage:        2 bytes
  1594 ;; Hardware stack levels used:    1
  1595 ;; This function calls:
  1596 ;;		Nothing
  1597 ;; This function is called by:
  1598 ;;		_SPI_init
  1599 ;; This function uses a non-reentrant model
  1600 ;;
  1601                           
  1602                           	psect	text4
  1603  001998                     __ptext4:
  1604                           	opt stack 0
  1605  001998                     _SPI_enableClock:
  1606                           	opt stack 29
  1607                           
  1608                           ;incstack = 0
  1609                           ;SPI_enableClock@phase stored from wreg
  1610  001998  6E47               	movwf	SPI_enableClock@phase,c
  1611                           
  1612                           ;SPI.c: 17: TRISCbits.TRISC5 = 0;
  1613  00199A  9A94               	bcf	3988,5,c	;volatile
  1614                           
  1615                           ;SPI.c: 19: TRISCbits.TRISC4 = 1;
  1616  00199C  8894               	bsf	3988,4,c	;volatile
  1617                           
  1618                           ;SPI.c: 21: TRISCbits.TRISC7 = 0;
  1619  00199E  9E94               	bcf	3988,7,c	;volatile
  1620                           
  1621                           ;SPI.c: 28: SSPSTAT |= (0x40);
  1622  0019A0  8CC7               	bsf	4039,6,c	;volatile
  1623                           
  1624                           ;SPI.c: 29: SSPSTATbits.BF = 0;
  1625  0019A2  90C7               	bcf	4039,0,c	;volatile
  1626                           
  1627                           ;SPI.c: 31: switch(phase)
  1628  0019A4  D004               	goto	l161
  1629  0019A6                     l162:
  1630                           
  1631                           ;SPI.c: 34: SSPCONbits.CKP = 0;
  1632  0019A6  98C6               	bcf	4038,4,c	;volatile
  1633                           
  1634                           ;SPI.c: 35: break;
  1635  0019A8  D00E               	goto	l166
  1636  0019AA                     l164:
  1637                           
  1638                           ;SPI.c: 37: SSPCONbits.CKP = 1;
  1639  0019AA  88C6               	bsf	4038,4,c	;volatile
  1640                           
  1641                           ;SPI.c: 41: }
  1642                           
  1643                           ;SPI.c: 40: break;
  1644                           
  1645                           ;SPI.c: 39: default:
  1646                           
  1647                           ;SPI.c: 38: break;
  1648  0019AC  D00C               	goto	l166
  1649  0019AE                     l161:
  1650  0019AE  5047               	movf	SPI_enableClock@phase,w,c
  1651                           
  1652                           ; Switch size 1, requested type "space"
  1653                           ; Number of cases is 2, Range of values is 0 to 1
  1654                           ; switch strategies available:
  1655                           ; Name         Instructions Cycles
  1656                           ; simple_byte            7     4 (average)
  1657                           ;	Chosen strategy is simple_byte
  1658  0019B0  0A00               	xorlw	0	; case 0
  1659  0019B2  B4D8               	btfsc	status,2,c
  1660  0019B4  D7F8               	goto	l162
  1661  0019B6  0A01               	xorlw	1	; case 1
  1662  0019B8  B4D8               	btfsc	status,2,c
  1663  0019BA  D7F7               	goto	l164
  1664                           
  1665                           ;SPI.c: 43: switch(cpol)
  1666  0019BC  D004               	goto	l166
  1667  0019BE                     l167:
  1668                           
  1669                           ;SPI.c: 46: SSPSTATbits.CKE = 0;
  1670  0019BE  9CC7               	bcf	4039,6,c	;volatile
  1671                           
  1672                           ;SPI.c: 47: break;
  1673  0019C0  0012               	return	
  1674  0019C2                     l169:
  1675                           
  1676                           ;SPI.c: 49: SSPSTATbits.CKE = 1;
  1677  0019C2  8CC7               	bsf	4039,6,c	;volatile
  1678                           
  1679                           ;SPI.c: 53: }
  1680                           
  1681                           ;SPI.c: 52: break;
  1682                           
  1683                           ;SPI.c: 51: default:
  1684                           
  1685                           ;SPI.c: 50: break;
  1686  0019C4  0012               	return	
  1687  0019C6                     l166:
  1688  0019C6  5046               	movf	SPI_enableClock@cpol,w,c
  1689                           
  1690                           ; Switch size 1, requested type "space"
  1691                           ; Number of cases is 2, Range of values is 0 to 1
  1692                           ; switch strategies available:
  1693                           ; Name         Instructions Cycles
  1694                           ; simple_byte            7     4 (average)
  1695                           ;	Chosen strategy is simple_byte
  1696  0019C8  0A00               	xorlw	0	; case 0
  1697  0019CA  B4D8               	btfsc	status,2,c
  1698  0019CC  D7F8               	goto	l167
  1699  0019CE  0A01               	xorlw	1	; case 1
  1700  0019D0  A4D8               	btfss	status,2,c
  1701  0019D2  0012               	return	
  1702  0019D4  D7F6               	goto	l169
  1703  0019D6                     __end_of_SPI_enableClock:
  1704                           	opt stack 0
  1705                           tblptru	equ	0xFF8
  1706                           tblptrh	equ	0xFF7
  1707                           tblptrl	equ	0xFF6
  1708                           tablat	equ	0xFF5
  1709                           postinc0	equ	0xFEE
  1710                           wreg	equ	0xFE8
  1711                           postdec1	equ	0xFE5
  1712                           plusw1	equ	0xFE3
  1713                           fsr1l	equ	0xFE1
  1714                           plusw2	equ	0xFDB
  1715                           status	equ	0xFD8
  1716                           
  1717 ;; *************** function _LCDNokia_sendChar *****************
  1718 ;; Defined at:
  1719 ;;		line 150 in file "LCDNokia5110.c"
  1720 ;; Parameters:    Size  Location     Type
  1721 ;;  character       1    wreg     unsigned char 
  1722 ;; Auto vars:     Size  Location     Type
  1723 ;;  character       1   10[COMRAM] unsigned char 
  1724 ;;  index           2   11[COMRAM] unsigned int 
  1725 ;; Return value:  Size  Location     Type
  1726 ;;                  1    wreg      void 
  1727 ;; Registers used:
  1728 ;;		wreg, status,2, status,0, tblptrl, tblptrh, tblptru, prodl, prodh, cstack
  1729 ;; Tracked objects:
  1730 ;;		On entry : 0/0
  1731 ;;		On exit  : 0/0
  1732 ;;		Unchanged: 0/0
  1733 ;; Data sizes:     COMRAM   BANK0   BANK1   BANK2
  1734 ;;      Params:         0       0       0       0
  1735 ;;      Locals:         3       0       0       0
  1736 ;;      Temps:          2       0       0       0
  1737 ;;      Totals:         5       0       0       0
  1738 ;;Total ram usage:        5 bytes
  1739 ;; Hardware stack levels used:    1
  1740 ;; Hardware stack levels required when called:    2
  1741 ;; This function calls:
  1742 ;;		_LCDNokia_writeByte
  1743 ;;		___wmul
  1744 ;; This function is called by:
  1745 ;;		_main
  1746 ;;		_LCDNokia_sendString
  1747 ;;		_LCDNokia_printValue
  1748 ;;		_LCDNokia_printFloatValue
  1749 ;; This function uses a non-reentrant model
  1750 ;;
  1751                           
  1752                           	psect	text5
  1753  001C5C                     __ptext5:
  1754                           	opt stack 0
  1755  001C5C                     _LCDNokia_sendChar:
  1756                           	opt stack 28
  1757                           
  1758                           ;incstack = 0
  1759                           ;LCDNokia_sendChar@character stored from wreg
  1760  001C5C  6E50               	movwf	LCDNokia_sendChar@character,c
  1761                           
  1762                           ;LCDNokia5110.c: 152: uint16_t index = 0;
  1763  001C5E  0E00               	movlw	0
  1764  001C60  6E52               	movwf	LCDNokia_sendChar@index+1,c
  1765  001C62  0E00               	movlw	0
  1766  001C64  6E51               	movwf	LCDNokia_sendChar@index,c
  1767                           
  1768                           ;LCDNokia5110.c: 154: LCDNokia_writeByte(1, 0x00);
  1769  001C66  0E00               	movlw	0
  1770  001C68  6E4C               	movwf	LCDNokia_writeByte@data,c
  1771  001C6A  0E01               	movlw	1
  1772  001C6C  EC2F  F00C         	call	_LCDNokia_writeByte
  1773                           
  1774                           ;LCDNokia5110.c: 156: for (index = 0; index < 5; index++)
  1775  001C70  0E00               	movlw	0
  1776  001C72  6E52               	movwf	LCDNokia_sendChar@index+1,c
  1777  001C74  0E00               	movlw	0
  1778  001C76  6E51               	movwf	LCDNokia_sendChar@index,c
  1779  001C78                     l2108:
  1780  001C78  5052               	movf	LCDNokia_sendChar@index+1,w,c
  1781  001C7A  E129               	bnz	l2118
  1782  001C7C  0E05               	movlw	5
  1783  001C7E  5C51               	subwf	LCDNokia_sendChar@index,w,c
  1784  001C80  B0D8               	btfsc	status,0,c
  1785  001C82  D025               	goto	u850
  1786                           
  1787                           ;LCDNokia5110.c: 157: {
  1788                           ;LCDNokia5110.c: 158: LCDNokia_writeByte(1, ASCII[character - 0x20][index]);
  1789  001C84  0EE0               	movlw	224
  1790  001C86  2450               	addwf	LCDNokia_sendChar@character,w,c
  1791  001C88  6E46               	movwf	___wmul@multiplier,c
  1792  001C8A  6A47               	clrf	___wmul@multiplier+1,c
  1793  001C8C  0EFF               	movlw	255
  1794  001C8E  2247               	addwfc	___wmul@multiplier+1,f,c
  1795  001C90  0E00               	movlw	0
  1796  001C92  6E49               	movwf	___wmul@multiplicand+1,c
  1797  001C94  0E05               	movlw	5
  1798  001C96  6E48               	movwf	___wmul@multiplicand,c
  1799  001C98  EC42  F00C         	call	___wmul	;wreg free
  1800  001C9C  0EB7               	movlw	low _ASCII
  1801  001C9E  6E4E               	movwf	??_LCDNokia_sendChar& (0+255),c
  1802  001CA0  0E1D               	movlw	high _ASCII
  1803  001CA2  6E4F               	movwf	(??_LCDNokia_sendChar+1)& (0+255),c
  1804  001CA4  5046               	movf	?___wmul,w,c
  1805  001CA6  264E               	addwf	??_LCDNokia_sendChar,f,c
  1806  001CA8  5047               	movf	?___wmul+1,w,c
  1807  001CAA  224F               	addwfc	??_LCDNokia_sendChar+1,f,c
  1808  001CAC  5051               	movf	LCDNokia_sendChar@index,w,c
  1809  001CAE  264E               	addwf	??_LCDNokia_sendChar,f,c
  1810  001CB0  5052               	movf	LCDNokia_sendChar@index+1,w,c
  1811  001CB2  224F               	addwfc	??_LCDNokia_sendChar+1,f,c
  1812  001CB4  C04E  FFF6         	movff	??_LCDNokia_sendChar,tblptrl
  1813  001CB8  C04F  FFF7         	movff	??_LCDNokia_sendChar+1,tblptrh
  1814  001CBC                     	if	0	;tblptru may be non-zero
  1815  001CBC                     	endif
  1816  001CBC                     	if	0	;tblptru may be non-zero
  1817  001CBC                     	endif
  1818  001CBC  0008               	tblrd		*
  1819  001CBE  CFF5 F04C          	movff	tablat,LCDNokia_writeByte@data
  1820  001CC2  0E01               	movlw	1
  1821  001CC4  EC2F  F00C         	call	_LCDNokia_writeByte
  1822  001CC8  4A51               	infsnz	LCDNokia_sendChar@index,f,c
  1823  001CCA  2A52               	incf	LCDNokia_sendChar@index+1,f,c
  1824  001CCC  D7D5               	goto	l2108
  1825  001CCE                     u850:
  1826  001CCE                     l2118:
  1827                           
  1828                           ;LCDNokia5110.c: 162: }
  1829                           ;LCDNokia5110.c: 164: LCDNokia_writeByte(1, 0x00);
  1830  001CCE  0E00               	movlw	0
  1831  001CD0  6E4C               	movwf	LCDNokia_writeByte@data,c
  1832  001CD2  0E01               	movlw	1
  1833  001CD4  EC2F  F00C         	call	_LCDNokia_writeByte
  1834  001CD8  0012               	return		;funcret
  1835  001CDA                     __end_of_LCDNokia_sendChar:
  1836                           	opt stack 0
  1837                           tblptru	equ	0xFF8
  1838                           tblptrh	equ	0xFF7
  1839                           tblptrl	equ	0xFF6
  1840                           tablat	equ	0xFF5
  1841                           postinc0	equ	0xFEE
  1842                           wreg	equ	0xFE8
  1843                           postdec1	equ	0xFE5
  1844                           plusw1	equ	0xFE3
  1845                           fsr1l	equ	0xFE1
  1846                           plusw2	equ	0xFDB
  1847                           status	equ	0xFD8
  1848                           
  1849 ;; *************** function ___wmul *****************
  1850 ;; Defined at:
  1851 ;;		line 15 in file "C:\Program Files (x86)\Microchip\xc8\v1.44\sources\common\Umul16.c"
  1852 ;; Parameters:    Size  Location     Type
  1853 ;;  multiplier      2    0[COMRAM] unsigned int 
  1854 ;;  multiplicand    2    2[COMRAM] unsigned int 
  1855 ;; Auto vars:     Size  Location     Type
  1856 ;;  product         2    4[COMRAM] unsigned int 
  1857 ;; Return value:  Size  Location     Type
  1858 ;;                  2    0[COMRAM] unsigned int 
  1859 ;; Registers used:
  1860 ;;		wreg, status,2, status,0, prodl, prodh
  1861 ;; Tracked objects:
  1862 ;;		On entry : 0/0
  1863 ;;		On exit  : 0/0
  1864 ;;		Unchanged: 0/0
  1865 ;; Data sizes:     COMRAM   BANK0   BANK1   BANK2
  1866 ;;      Params:         4       0       0       0
  1867 ;;      Locals:         2       0       0       0
  1868 ;;      Temps:          0       0       0       0
  1869 ;;      Totals:         6       0       0       0
  1870 ;;Total ram usage:        6 bytes
  1871 ;; Hardware stack levels used:    1
  1872 ;; This function calls:
  1873 ;;		Nothing
  1874 ;; This function is called by:
  1875 ;;		_LCDNokia_sendChar
  1876 ;; This function uses a non-reentrant model
  1877 ;;
  1878                           
  1879                           	psect	text6
  1880  001884                     __ptext6:
  1881                           	opt stack 0
  1882  001884                     ___wmul:
  1883                           	opt stack 29
  1884                           
  1885                           ;incstack = 0
  1886  001884  5046               	movf	___wmul@multiplier,w,c
  1887  001886  0248               	mulwf	___wmul@multiplicand,c
  1888  001888  CFF3 F04A          	movff	prodl,___wmul@product
  1889  00188C  CFF4 F04B          	movff	prodh,___wmul@product+1
  1890  001890  5046               	movf	___wmul@multiplier,w,c
  1891  001892  0249               	mulwf	___wmul@multiplicand+1,c
  1892  001894  50F3               	movf	prodl,w,c
  1893  001896  264B               	addwf	___wmul@product+1,f,c
  1894  001898  5047               	movf	___wmul@multiplier+1,w,c
  1895  00189A  0248               	mulwf	___wmul@multiplicand,c
  1896  00189C  50F3               	movf	prodl,w,c
  1897  00189E  264B               	addwf	___wmul@product+1,f,c
  1898  0018A0  C04A  F046         	movff	___wmul@product,?___wmul
  1899  0018A4  C04B  F047         	movff	___wmul@product+1,?___wmul+1
  1900  0018A8  0012               	return	
  1901  0018AA                     __end_of___wmul:
  1902                           	opt stack 0
  1903                           tblptru	equ	0xFF8
  1904                           tblptrh	equ	0xFF7
  1905                           tblptrl	equ	0xFF6
  1906                           tablat	equ	0xFF5
  1907                           prodh	equ	0xFF4
  1908                           prodl	equ	0xFF3
  1909                           postinc0	equ	0xFEE
  1910                           wreg	equ	0xFE8
  1911                           postdec1	equ	0xFE5
  1912                           plusw1	equ	0xFE3
  1913                           fsr1l	equ	0xFE1
  1914                           plusw2	equ	0xFDB
  1915                           status	equ	0xFD8
  1916                           
  1917 ;; *************** function _LCDNokia_init *****************
  1918 ;; Defined at:
  1919 ;;		line 108 in file "LCDNokia5110.c"
  1920 ;; Parameters:    Size  Location     Type
  1921 ;;		None
  1922 ;; Auto vars:     Size  Location     Type
  1923 ;;		None
  1924 ;; Return value:  Size  Location     Type
  1925 ;;                  1    wreg      void 
  1926 ;; Registers used:
  1927 ;;		wreg, status,2, status,0, cstack
  1928 ;; Tracked objects:
  1929 ;;		On entry : 0/0
  1930 ;;		On exit  : 0/0
  1931 ;;		Unchanged: 0/0
  1932 ;; Data sizes:     COMRAM   BANK0   BANK1   BANK2
  1933 ;;      Params:         0       0       0       0
  1934 ;;      Locals:         0       0       0       0
  1935 ;;      Temps:          0       0       0       0
  1936 ;;      Totals:         0       0       0       0
  1937 ;;Total ram usage:        0 bytes
  1938 ;; Hardware stack levels used:    1
  1939 ;; Hardware stack levels required when called:    2
  1940 ;; This function calls:
  1941 ;;		_GPIO_clearPIN
  1942 ;;		_GPIO_dataDirectionPIN
  1943 ;;		_GPIO_setPIN
  1944 ;;		_LCDNokia_writeByte
  1945 ;;		_LCD_delay
  1946 ;; This function is called by:
  1947 ;;		_main
  1948 ;; This function uses a non-reentrant model
  1949 ;;
  1950                           
  1951                           	psect	text7
  1952  001BEA                     __ptext7:
  1953                           	opt stack 0
  1954  001BEA                     _LCDNokia_init:
  1955                           	opt stack 28
  1956                           
  1957                           ;LCDNokia5110.c: 111: GPIO_dataDirectionPIN(GPIO_B, 2, GPIO_OUTPUT);
  1958                           
  1959                           ;incstack = 0
  1960  001BEA  0E02               	movlw	2
  1961  001BEC  6E46               	movwf	GPIO_dataDirectionPIN@pin,c
  1962  001BEE  0E01               	movlw	1
  1963  001BF0  6E47               	movwf	GPIO_dataDirectionPIN@state,c
  1964  001BF2  0E01               	movlw	1
  1965  001BF4  EC6D  F00E         	call	_GPIO_dataDirectionPIN
  1966                           
  1967                           ;LCDNokia5110.c: 112: GPIO_dataDirectionPIN(GPIO_B, 1, GPIO_OUTPUT);
  1968  001BF8  0E01               	movlw	1
  1969  001BFA  6E46               	movwf	GPIO_dataDirectionPIN@pin,c
  1970  001BFC  0E01               	movlw	1
  1971  001BFE  6E47               	movwf	GPIO_dataDirectionPIN@state,c
  1972  001C00  0E01               	movlw	1
  1973  001C02  EC6D  F00E         	call	_GPIO_dataDirectionPIN
  1974                           
  1975                           ;LCDNokia5110.c: 114: GPIO_clearPIN(GPIO_B, 1);
  1976  001C06  0E01               	movlw	1
  1977  001C08  6E46               	movwf	GPIO_clearPIN@pin,c
  1978  001C0A  0E01               	movlw	1
  1979  001C0C  ECBE  F00D         	call	_GPIO_clearPIN
  1980                           
  1981                           ;LCDNokia5110.c: 115: LCD_delay();
  1982  001C10  EC97  F00C         	call	_LCD_delay	;wreg free
  1983                           
  1984                           ;LCDNokia5110.c: 116: GPIO_setPIN(GPIO_B, 1);
  1985  001C14  0E01               	movlw	1
  1986  001C16  6E46               	movwf	GPIO_setPIN@pin,c
  1987  001C18  0E01               	movlw	1
  1988  001C1A  EC8A  F00D         	call	_GPIO_setPIN
  1989                           
  1990                           ;LCDNokia5110.c: 118: LCDNokia_writeByte(0, 0x21);
  1991  001C1E  0E21               	movlw	33
  1992  001C20  6E4C               	movwf	LCDNokia_writeByte@data,c
  1993  001C22  0E00               	movlw	0
  1994  001C24  EC2F  F00C         	call	_LCDNokia_writeByte
  1995                           
  1996                           ;LCDNokia5110.c: 119: LCDNokia_writeByte(0, 0xB1);
  1997  001C28  0EB1               	movlw	177
  1998  001C2A  6E4C               	movwf	LCDNokia_writeByte@data,c
  1999  001C2C  0E00               	movlw	0
  2000  001C2E  EC2F  F00C         	call	_LCDNokia_writeByte
  2001                           
  2002                           ;LCDNokia5110.c: 120: LCDNokia_writeByte(0, 0x04);
  2003  001C32  0E04               	movlw	4
  2004  001C34  6E4C               	movwf	LCDNokia_writeByte@data,c
  2005  001C36  0E00               	movlw	0
  2006  001C38  EC2F  F00C         	call	_LCDNokia_writeByte
  2007                           
  2008                           ;LCDNokia5110.c: 121: LCDNokia_writeByte(0, 0x14);
  2009  001C3C  0E14               	movlw	20
  2010  001C3E  6E4C               	movwf	LCDNokia_writeByte@data,c
  2011  001C40  0E00               	movlw	0
  2012  001C42  EC2F  F00C         	call	_LCDNokia_writeByte
  2013                           
  2014                           ;LCDNokia5110.c: 122: LCDNokia_writeByte(0, 0x20);
  2015  001C46  0E20               	movlw	32
  2016  001C48  6E4C               	movwf	LCDNokia_writeByte@data,c
  2017  001C4A  0E00               	movlw	0
  2018  001C4C  EC2F  F00C         	call	_LCDNokia_writeByte
  2019                           
  2020                           ;LCDNokia5110.c: 123: LCDNokia_writeByte(0, 0x0C);
  2021  001C50  0E0C               	movlw	12
  2022  001C52  6E4C               	movwf	LCDNokia_writeByte@data,c
  2023  001C54  0E00               	movlw	0
  2024  001C56  EC2F  F00C         	call	_LCDNokia_writeByte
  2025  001C5A  0012               	return		;funcret
  2026  001C5C                     __end_of_LCDNokia_init:
  2027                           	opt stack 0
  2028                           tblptru	equ	0xFF8
  2029                           tblptrh	equ	0xFF7
  2030                           tblptrl	equ	0xFF6
  2031                           tablat	equ	0xFF5
  2032                           prodh	equ	0xFF4
  2033                           prodl	equ	0xFF3
  2034                           postinc0	equ	0xFEE
  2035                           wreg	equ	0xFE8
  2036                           postdec1	equ	0xFE5
  2037                           plusw1	equ	0xFE3
  2038                           fsr1l	equ	0xFE1
  2039                           plusw2	equ	0xFDB
  2040                           status	equ	0xFD8
  2041                           
  2042 ;; *************** function _LCD_delay *****************
  2043 ;; Defined at:
  2044 ;;		line 193 in file "LCDNokia5110.c"
  2045 ;; Parameters:    Size  Location     Type
  2046 ;;		None
  2047 ;; Auto vars:     Size  Location     Type
  2048 ;;  counter         4    0[COMRAM] unsigned long 
  2049 ;; Return value:  Size  Location     Type
  2050 ;;                  1    wreg      void 
  2051 ;; Registers used:
  2052 ;;		wreg, status,2, status,0
  2053 ;; Tracked objects:
  2054 ;;		On entry : 0/0
  2055 ;;		On exit  : 0/0
  2056 ;;		Unchanged: 0/0
  2057 ;; Data sizes:     COMRAM   BANK0   BANK1   BANK2
  2058 ;;      Params:         0       0       0       0
  2059 ;;      Locals:         4       0       0       0
  2060 ;;      Temps:          0       0       0       0
  2061 ;;      Totals:         4       0       0       0
  2062 ;;Total ram usage:        4 bytes
  2063 ;; Hardware stack levels used:    1
  2064 ;; This function calls:
  2065 ;;		Nothing
  2066 ;; This function is called by:
  2067 ;;		_LCDNokia_init
  2068 ;; This function uses a non-reentrant model
  2069 ;;
  2070                           
  2071                           	psect	text8
  2072  00192E                     __ptext8:
  2073                           	opt stack 0
  2074  00192E                     _LCD_delay:
  2075                           	opt stack 29
  2076                           
  2077                           ;LCDNokia5110.c: 195: uint32_t counter;
  2078                           ;LCDNokia5110.c: 197: for(counter = 0; counter < 50000; counter++)
  2079                           
  2080                           ;incstack = 0
  2081  00192E  0E00               	movlw	0
  2082  001930  6E46               	movwf	LCD_delay@counter,c
  2083  001932  0E00               	movlw	0
  2084  001934  6E47               	movwf	LCD_delay@counter+1,c
  2085  001936  0E00               	movlw	0
  2086  001938  6E48               	movwf	LCD_delay@counter+2,c
  2087  00193A  0E00               	movlw	0
  2088  00193C  6E49               	movwf	LCD_delay@counter+3,c
  2089  00193E                     l2044:
  2090  00193E  5049               	movf	LCD_delay@counter+3,w,c
  2091  001940  1048               	iorwf	LCD_delay@counter+2,w,c
  2092  001942  E10D               	bnz	l567
  2093  001944  0E50               	movlw	80
  2094  001946  5C46               	subwf	LCD_delay@counter,w,c
  2095  001948  0EC3               	movlw	195
  2096  00194A  5847               	subwfb	LCD_delay@counter+1,w,c
  2097  00194C  B0D8               	btfsc	status,0,c
  2098  00194E  0012               	return	
  2099                           
  2100                           ;LCDNokia5110.c: 198: {
  2101  001950  0E01               	movlw	1
  2102  001952  2646               	addwf	LCD_delay@counter,f,c
  2103  001954  0E00               	movlw	0
  2104  001956  2247               	addwfc	LCD_delay@counter+1,f,c
  2105  001958  2248               	addwfc	LCD_delay@counter+2,f,c
  2106  00195A  2249               	addwfc	LCD_delay@counter+3,f,c
  2107  00195C  D7F0               	goto	l2044
  2108  00195E                     l567:
  2109  00195E  0012               	return		;funcret
  2110  001960                     __end_of_LCD_delay:
  2111                           	opt stack 0
  2112                           tblptru	equ	0xFF8
  2113                           tblptrh	equ	0xFF7
  2114                           tblptrl	equ	0xFF6
  2115                           tablat	equ	0xFF5
  2116                           prodh	equ	0xFF4
  2117                           prodl	equ	0xFF3
  2118                           postinc0	equ	0xFEE
  2119                           wreg	equ	0xFE8
  2120                           postdec1	equ	0xFE5
  2121                           plusw1	equ	0xFE3
  2122                           fsr1l	equ	0xFE1
  2123                           plusw2	equ	0xFDB
  2124                           status	equ	0xFD8
  2125                           
  2126 ;; *************** function _LCDNokia_clear *****************
  2127 ;; Defined at:
  2128 ;;		line 175 in file "LCDNokia5110.c"
  2129 ;; Parameters:    Size  Location     Type
  2130 ;;		None
  2131 ;; Auto vars:     Size  Location     Type
  2132 ;;  index           2   10[COMRAM] unsigned int 
  2133 ;; Return value:  Size  Location     Type
  2134 ;;                  1    wreg      void 
  2135 ;; Registers used:
  2136 ;;		wreg, status,2, status,0, cstack
  2137 ;; Tracked objects:
  2138 ;;		On entry : 0/0
  2139 ;;		On exit  : 0/0
  2140 ;;		Unchanged: 0/0
  2141 ;; Data sizes:     COMRAM   BANK0   BANK1   BANK2
  2142 ;;      Params:         0       0       0       0
  2143 ;;      Locals:         2       0       0       0
  2144 ;;      Temps:          0       0       0       0
  2145 ;;      Totals:         2       0       0       0
  2146 ;;Total ram usage:        2 bytes
  2147 ;; Hardware stack levels used:    1
  2148 ;; Hardware stack levels required when called:    3
  2149 ;; This function calls:
  2150 ;;		_LCDNokia_gotoXY
  2151 ;;		_LCDNokia_writeByte
  2152 ;; This function is called by:
  2153 ;;		_main
  2154 ;;		_generalView
  2155 ;;		_viewMenu
  2156 ;; This function uses a non-reentrant model
  2157 ;;
  2158                           
  2159                           	psect	text9
  2160  001960                     __ptext9:
  2161                           	opt stack 0
  2162  001960                     _LCDNokia_clear:
  2163                           	opt stack 27
  2164                           
  2165                           ;LCDNokia5110.c: 177: uint16_t index = 0;
  2166                           
  2167                           ;incstack = 0
  2168  001960  0E00               	movlw	0
  2169  001962  6E51               	movwf	LCDNokia_clear@index+1,c
  2170  001964  0E00               	movlw	0
  2171  001966  6E50               	movwf	LCDNokia_clear@index,c
  2172                           
  2173                           ;LCDNokia5110.c: 179: for (index = 0; index < ((84 * 48) / 8); index++)
  2174  001968  0E00               	movlw	0
  2175  00196A  6E51               	movwf	LCDNokia_clear@index+1,c
  2176  00196C  0E00               	movlw	0
  2177  00196E  6E50               	movwf	LCDNokia_clear@index,c
  2178  001970                     l2084:
  2179  001970  0EF8               	movlw	248
  2180  001972  5C50               	subwf	LCDNokia_clear@index,w,c
  2181  001974  0E01               	movlw	1
  2182  001976  5851               	subwfb	LCDNokia_clear@index+1,w,c
  2183  001978  B0D8               	btfsc	status,0,c
  2184  00197A  D008               	goto	u830
  2185                           
  2186                           ;LCDNokia5110.c: 180: {
  2187                           ;LCDNokia5110.c: 181: LCDNokia_writeByte(1, 0x00);
  2188  00197C  0E00               	movlw	0
  2189  00197E  6E4C               	movwf	LCDNokia_writeByte@data,c
  2190  001980  0E01               	movlw	1
  2191  001982  EC2F  F00C         	call	_LCDNokia_writeByte
  2192  001986  4A50               	infsnz	LCDNokia_clear@index,f,c
  2193  001988  2A51               	incf	LCDNokia_clear@index+1,f,c
  2194  00198A  D7F2               	goto	l2084
  2195  00198C                     u830:
  2196                           
  2197                           ;LCDNokia5110.c: 182: }
  2198                           ;LCDNokia5110.c: 184: LCDNokia_gotoXY(0, 0);
  2199  00198C  0E00               	movlw	0
  2200  00198E  6E4E               	movwf	LCDNokia_gotoXY@y,c
  2201  001990  0E00               	movlw	0
  2202  001992  EC21  F00C         	call	_LCDNokia_gotoXY
  2203  001996  0012               	return		;funcret
  2204  001998                     __end_of_LCDNokia_clear:
  2205                           	opt stack 0
  2206                           tblptru	equ	0xFF8
  2207                           tblptrh	equ	0xFF7
  2208                           tblptrl	equ	0xFF6
  2209                           tablat	equ	0xFF5
  2210                           prodh	equ	0xFF4
  2211                           prodl	equ	0xFF3
  2212                           postinc0	equ	0xFEE
  2213                           wreg	equ	0xFE8
  2214                           postdec1	equ	0xFE5
  2215                           plusw1	equ	0xFE3
  2216                           fsr1l	equ	0xFE1
  2217                           plusw2	equ	0xFDB
  2218                           status	equ	0xFD8
  2219                           
  2220 ;; *************** function _LCDNokia_gotoXY *****************
  2221 ;; Defined at:
  2222 ;;		line 187 in file "LCDNokia5110.c"
  2223 ;; Parameters:    Size  Location     Type
  2224 ;;  x               1    wreg     unsigned char 
  2225 ;;  y               1    8[COMRAM] unsigned char 
  2226 ;; Auto vars:     Size  Location     Type
  2227 ;;  x               1    9[COMRAM] unsigned char 
  2228 ;; Return value:  Size  Location     Type
  2229 ;;                  1    wreg      void 
  2230 ;; Registers used:
  2231 ;;		wreg, status,2, status,0, cstack
  2232 ;; Tracked objects:
  2233 ;;		On entry : 0/0
  2234 ;;		On exit  : 0/0
  2235 ;;		Unchanged: 0/0
  2236 ;; Data sizes:     COMRAM   BANK0   BANK1   BANK2
  2237 ;;      Params:         1       0       0       0
  2238 ;;      Locals:         1       0       0       0
  2239 ;;      Temps:          0       0       0       0
  2240 ;;      Totals:         2       0       0       0
  2241 ;;Total ram usage:        2 bytes
  2242 ;; Hardware stack levels used:    1
  2243 ;; Hardware stack levels required when called:    2
  2244 ;; This function calls:
  2245 ;;		_LCDNokia_writeByte
  2246 ;; This function is called by:
  2247 ;;		_LCDNokia_clear
  2248 ;;		_generalView
  2249 ;; This function uses a non-reentrant model
  2250 ;;
  2251                           
  2252                           	psect	text10
  2253  001842                     __ptext10:
  2254                           	opt stack 0
  2255  001842                     _LCDNokia_gotoXY:
  2256                           	opt stack 27
  2257                           
  2258                           ;incstack = 0
  2259                           ;LCDNokia_gotoXY@x stored from wreg
  2260  001842  6E4F               	movwf	LCDNokia_gotoXY@x,c
  2261                           
  2262                           ;LCDNokia5110.c: 189: LCDNokia_writeByte(0, 0x80 | x);
  2263  001844  504F               	movf	LCDNokia_gotoXY@x,w,c
  2264  001846  0980               	iorlw	128
  2265  001848  6E4C               	movwf	LCDNokia_writeByte@data,c
  2266  00184A  0E00               	movlw	0
  2267  00184C  EC2F  F00C         	call	_LCDNokia_writeByte
  2268                           
  2269                           ;LCDNokia5110.c: 190: LCDNokia_writeByte(0, 0x40 | y);
  2270  001850  504E               	movf	LCDNokia_gotoXY@y,w,c
  2271  001852  0940               	iorlw	64
  2272  001854  6E4C               	movwf	LCDNokia_writeByte@data,c
  2273  001856  0E00               	movlw	0
  2274  001858  EC2F  F00C         	call	_LCDNokia_writeByte
  2275  00185C  0012               	return		;funcret
  2276  00185E                     __end_of_LCDNokia_gotoXY:
  2277                           	opt stack 0
  2278                           tblptru	equ	0xFF8
  2279                           tblptrh	equ	0xFF7
  2280                           tblptrl	equ	0xFF6
  2281                           tablat	equ	0xFF5
  2282                           prodh	equ	0xFF4
  2283                           prodl	equ	0xFF3
  2284                           postinc0	equ	0xFEE
  2285                           wreg	equ	0xFE8
  2286                           postdec1	equ	0xFE5
  2287                           plusw1	equ	0xFE3
  2288                           fsr1l	equ	0xFE1
  2289                           plusw2	equ	0xFDB
  2290                           status	equ	0xFD8
  2291                           
  2292 ;; *************** function _LCDNokia_writeByte *****************
  2293 ;; Defined at:
  2294 ;;		line 136 in file "LCDNokia5110.c"
  2295 ;; Parameters:    Size  Location     Type
  2296 ;;  DataOrCmd       1    wreg     unsigned char 
  2297 ;;  data            1    6[COMRAM] unsigned char 
  2298 ;; Auto vars:     Size  Location     Type
  2299 ;;  DataOrCmd       1    7[COMRAM] unsigned char 
  2300 ;; Return value:  Size  Location     Type
  2301 ;;                  1    wreg      void 
  2302 ;; Registers used:
  2303 ;;		wreg, status,2, status,0, cstack
  2304 ;; Tracked objects:
  2305 ;;		On entry : 0/0
  2306 ;;		On exit  : 0/0
  2307 ;;		Unchanged: 0/0
  2308 ;; Data sizes:     COMRAM   BANK0   BANK1   BANK2
  2309 ;;      Params:         1       0       0       0
  2310 ;;      Locals:         1       0       0       0
  2311 ;;      Temps:          0       0       0       0
  2312 ;;      Totals:         2       0       0       0
  2313 ;;Total ram usage:        2 bytes
  2314 ;; Hardware stack levels used:    1
  2315 ;; Hardware stack levels required when called:    1
  2316 ;; This function calls:
  2317 ;;		_GPIO_clearPIN
  2318 ;;		_GPIO_setPIN
  2319 ;;		_SPI_write
  2320 ;; This function is called by:
  2321 ;;		_LCDNokia_init
  2322 ;;		_LCDNokia_sendChar
  2323 ;;		_LCDNokia_clear
  2324 ;;		_LCDNokia_gotoXY
  2325 ;;		_LCDNokia_bitmap
  2326 ;; This function uses a non-reentrant model
  2327 ;;
  2328                           
  2329                           	psect	text11
  2330  00185E                     __ptext11:
  2331                           	opt stack 0
  2332  00185E                     _LCDNokia_writeByte:
  2333                           	opt stack 28
  2334                           
  2335                           ;incstack = 0
  2336                           ;LCDNokia_writeByte@DataOrCmd stored from wreg
  2337  00185E  6E4D               	movwf	LCDNokia_writeByte@DataOrCmd,c
  2338                           
  2339                           ;LCDNokia5110.c: 138: if(DataOrCmd)
  2340  001860  504D               	movf	LCDNokia_writeByte@DataOrCmd,w,c
  2341  001862  B4D8               	btfsc	status,2,c
  2342  001864  D006               	goto	l541
  2343                           
  2344                           ;LCDNokia5110.c: 139: {
  2345                           ;LCDNokia5110.c: 140: GPIO_setPIN(GPIO_B, 2);
  2346  001866  0E02               	movlw	2
  2347  001868  6E46               	movwf	GPIO_setPIN@pin,c
  2348  00186A  0E01               	movlw	1
  2349  00186C  EC8A  F00D         	call	_GPIO_setPIN
  2350                           
  2351                           ;LCDNokia5110.c: 141: }
  2352  001870  D005               	goto	l542
  2353  001872                     l541:
  2354                           
  2355                           ;LCDNokia5110.c: 142: else
  2356                           ;LCDNokia5110.c: 143: {
  2357                           ;LCDNokia5110.c: 144: GPIO_clearPIN(GPIO_B, 2);
  2358  001872  0E02               	movlw	2
  2359  001874  6E46               	movwf	GPIO_clearPIN@pin,c
  2360  001876  0E01               	movlw	1
  2361  001878  ECBE  F00D         	call	_GPIO_clearPIN
  2362  00187C                     l542:
  2363                           
  2364                           ;LCDNokia5110.c: 145: }
  2365                           ;LCDNokia5110.c: 147: SPI_write(data);
  2366  00187C  504C               	movf	LCDNokia_writeByte@data,w,c
  2367  00187E  EC1A  F00C         	call	_SPI_write
  2368  001882  0012               	return		;funcret
  2369  001884                     __end_of_LCDNokia_writeByte:
  2370                           	opt stack 0
  2371                           tblptru	equ	0xFF8
  2372                           tblptrh	equ	0xFF7
  2373                           tblptrl	equ	0xFF6
  2374                           tablat	equ	0xFF5
  2375                           prodh	equ	0xFF4
  2376                           prodl	equ	0xFF3
  2377                           postinc0	equ	0xFEE
  2378                           wreg	equ	0xFE8
  2379                           postdec1	equ	0xFE5
  2380                           plusw1	equ	0xFE3
  2381                           fsr1l	equ	0xFE1
  2382                           plusw2	equ	0xFDB
  2383                           status	equ	0xFD8
  2384                           
  2385 ;; *************** function _SPI_write *****************
  2386 ;; Defined at:
  2387 ;;		line 86 in file "SPI.c"
  2388 ;; Parameters:    Size  Location     Type
  2389 ;;  data            1    wreg     unsigned char 
  2390 ;; Auto vars:     Size  Location     Type
  2391 ;;  data            1    0[COMRAM] unsigned char 
  2392 ;;  flushData       1    0        unsigned char 
  2393 ;; Return value:  Size  Location     Type
  2394 ;;                  1    wreg      void 
  2395 ;; Registers used:
  2396 ;;		wreg
  2397 ;; Tracked objects:
  2398 ;;		On entry : 0/0
  2399 ;;		On exit  : 0/0
  2400 ;;		Unchanged: 0/0
  2401 ;; Data sizes:     COMRAM   BANK0   BANK1   BANK2
  2402 ;;      Params:         0       0       0       0
  2403 ;;      Locals:         1       0       0       0
  2404 ;;      Temps:          0       0       0       0
  2405 ;;      Totals:         1       0       0       0
  2406 ;;Total ram usage:        1 bytes
  2407 ;; Hardware stack levels used:    1
  2408 ;; This function calls:
  2409 ;;		Nothing
  2410 ;; This function is called by:
  2411 ;;		_LCDNokia_writeByte
  2412 ;; This function uses a non-reentrant model
  2413 ;;
  2414                           
  2415                           	psect	text12
  2416  001834                     __ptext12:
  2417                           	opt stack 0
  2418  001834                     _SPI_write:
  2419                           	opt stack 28
  2420                           
  2421                           ;incstack = 0
  2422                           ;SPI_write@data stored from wreg
  2423  001834  6E46               	movwf	SPI_write@data,c
  2424                           
  2425                           ;SPI.c: 88: uint8_t flushData;
  2426                           ;SPI.c: 89: SSPBUF = data;
  2427  001836  C046  FFC9         	movff	SPI_write@data,4041	;volatile
  2428  00183A  A69E               	btfss	3998,3,c	;volatile
  2429  00183C  D7FE               	goto	l187
  2430                           
  2431                           ;SPI.c: 92: PIR1bits.SSPIF = 0;
  2432  00183E  969E               	bcf	3998,3,c	;volatile
  2433  001840  0012               	return		;funcret
  2434  001842                     __end_of_SPI_write:
  2435                           	opt stack 0
  2436                           tblptru	equ	0xFF8
  2437                           tblptrh	equ	0xFF7
  2438                           tblptrl	equ	0xFF6
  2439                           tablat	equ	0xFF5
  2440                           prodh	equ	0xFF4
  2441                           prodl	equ	0xFF3
  2442                           postinc0	equ	0xFEE
  2443                           wreg	equ	0xFE8
  2444                           postdec1	equ	0xFE5
  2445                           plusw1	equ	0xFE3
  2446                           fsr1l	equ	0xFE1
  2447                           plusw2	equ	0xFDB
  2448                           status	equ	0xFD8
  2449                           
  2450 ;; *************** function _GPIO_setPIN *****************
  2451 ;; Defined at:
  2452 ;;		line 151 in file "GPIO.c"
  2453 ;; Parameters:    Size  Location     Type
  2454 ;;  portName        1    wreg     enum E3075
  2455 ;;  pin             1    0[COMRAM] unsigned char 
  2456 ;; Auto vars:     Size  Location     Type
  2457 ;;  portName        1    3[COMRAM] enum E3075
  2458 ;; Return value:  Size  Location     Type
  2459 ;;                  1    wreg      void 
  2460 ;; Registers used:
  2461 ;;		wreg, status,2, status,0
  2462 ;; Tracked objects:
  2463 ;;		On entry : 0/0
  2464 ;;		On exit  : 0/0
  2465 ;;		Unchanged: 0/0
  2466 ;; Data sizes:     COMRAM   BANK0   BANK1   BANK2
  2467 ;;      Params:         1       0       0       0
  2468 ;;      Locals:         1       0       0       0
  2469 ;;      Temps:          2       0       0       0
  2470 ;;      Totals:         4       0       0       0
  2471 ;;Total ram usage:        4 bytes
  2472 ;; Hardware stack levels used:    1
  2473 ;; This function calls:
  2474 ;;		Nothing
  2475 ;; This function is called by:
  2476 ;;		_LCDNokia_init
  2477 ;;		_LCDNokia_writeByte
  2478 ;; This function uses a non-reentrant model
  2479 ;;
  2480                           
  2481                           	psect	text13
  2482  001B14                     __ptext13:
  2483                           	opt stack 0
  2484  001B14                     _GPIO_setPIN:
  2485                           	opt stack 28
  2486                           
  2487                           ;incstack = 0
  2488                           ;GPIO_setPIN@portName stored from wreg
  2489  001B14  6E49               	movwf	GPIO_setPIN@portName,c
  2490                           
  2491                           ;GPIO.c: 154: switch(portName)
  2492  001B16  D027               	goto	l124
  2493  001B18                     
  2494                           ;GPIO.c: 157: PORTA |= (1<<pin);
  2495  001B18  C046  F047         	movff	GPIO_setPIN@pin,??_GPIO_setPIN
  2496  001B1C  0E01               	movlw	1
  2497  001B1E  6E48               	movwf	(??_GPIO_setPIN+1)& (0+255),c
  2498  001B20  2A47               	incf	??_GPIO_setPIN,f,c
  2499  001B22  D002               	goto	u664
  2500  001B24                     u665:
  2501  001B24  90D8               	bcf	status,0,c
  2502  001B26  3648               	rlcf	??_GPIO_setPIN+1,f,c
  2503  001B28                     u664:
  2504  001B28  2E47               	decfsz	??_GPIO_setPIN,f,c
  2505  001B2A  D7FC               	goto	u665
  2506  001B2C  5048               	movf	??_GPIO_setPIN+1,w,c
  2507  001B2E  1280               	iorwf	3968,f,c	;volatile
  2508                           
  2509                           ;GPIO.c: 158: break;
  2510  001B30  0012               	return	
  2511  001B32                     
  2512                           ;GPIO.c: 160: PORTB |= (1<<pin);
  2513  001B32  C046  F047         	movff	GPIO_setPIN@pin,??_GPIO_setPIN
  2514  001B36  0E01               	movlw	1
  2515  001B38  6E48               	movwf	(??_GPIO_setPIN+1)& (0+255),c
  2516  001B3A  2A47               	incf	??_GPIO_setPIN,f,c
  2517  001B3C  D002               	goto	u674
  2518  001B3E                     u675:
  2519  001B3E  90D8               	bcf	status,0,c
  2520  001B40  3648               	rlcf	??_GPIO_setPIN+1,f,c
  2521  001B42                     u674:
  2522  001B42  2E47               	decfsz	??_GPIO_setPIN,f,c
  2523  001B44  D7FC               	goto	u675
  2524  001B46  5048               	movf	??_GPIO_setPIN+1,w,c
  2525  001B48  1281               	iorwf	3969,f,c	;volatile
  2526                           
  2527                           ;GPIO.c: 161: break;
  2528  001B4A  0012               	return	
  2529  001B4C                     
  2530                           ;GPIO.c: 163: PORTC |= (1<<pin);
  2531  001B4C  C046  F047         	movff	GPIO_setPIN@pin,??_GPIO_setPIN
  2532  001B50  0E01               	movlw	1
  2533  001B52  6E48               	movwf	(??_GPIO_setPIN+1)& (0+255),c
  2534  001B54  2A47               	incf	??_GPIO_setPIN,f,c
  2535  001B56  D002               	goto	u684
  2536  001B58                     u685:
  2537  001B58  90D8               	bcf	status,0,c
  2538  001B5A  3648               	rlcf	??_GPIO_setPIN+1,f,c
  2539  001B5C                     u684:
  2540  001B5C  2E47               	decfsz	??_GPIO_setPIN,f,c
  2541  001B5E  D7FC               	goto	u685
  2542  001B60  5048               	movf	??_GPIO_setPIN+1,w,c
  2543  001B62  1282               	iorwf	3970,f,c	;volatile
  2544                           
  2545                           ;GPIO.c: 167: }
  2546                           
  2547                           ;GPIO.c: 166: break;
  2548                           
  2549                           ;GPIO.c: 165: default:
  2550                           
  2551                           ;GPIO.c: 164: break;
  2552  001B64  0012               	return	
  2553  001B66                     l124:
  2554  001B66  5049               	movf	GPIO_setPIN@portName,w,c
  2555                           
  2556                           ; Switch size 1, requested type "space"
  2557                           ; Number of cases is 3, Range of values is 0 to 2
  2558                           ; switch strategies available:
  2559                           ; Name         Instructions Cycles
  2560                           ; simple_byte           10     6 (average)
  2561                           ;	Chosen strategy is simple_byte
  2562  001B68  0A00               	xorlw	0	; case 0
  2563  001B6A  B4D8               	btfsc	status,2,c
  2564  001B6C  D7D5               	goto	l125
  2565  001B6E  0A01               	xorlw	1	; case 1
  2566  001B70  B4D8               	btfsc	status,2,c
  2567  001B72  D7DF               	goto	l127
  2568  001B74  0A03               	xorlw	3	; case 2
  2569  001B76  A4D8               	btfss	status,2,c
  2570  001B78  0012               	return	
  2571  001B7A  D7E8               	goto	l128
  2572  001B7C                     __end_of_GPIO_setPIN:
  2573                           	opt stack 0
  2574                           tblptru	equ	0xFF8
  2575                           tblptrh	equ	0xFF7
  2576                           tblptrl	equ	0xFF6
  2577                           tablat	equ	0xFF5
  2578                           prodh	equ	0xFF4
  2579                           prodl	equ	0xFF3
  2580                           postinc0	equ	0xFEE
  2581                           wreg	equ	0xFE8
  2582                           postdec1	equ	0xFE5
  2583                           plusw1	equ	0xFE3
  2584                           fsr1l	equ	0xFE1
  2585                           plusw2	equ	0xFDB
  2586                           status	equ	0xFD8
  2587                           
  2588 ;; *************** function _GPIO_clearPIN *****************
  2589 ;; Defined at:
  2590 ;;		line 170 in file "GPIO.c"
  2591 ;; Parameters:    Size  Location     Type
  2592 ;;  portName        1    wreg     enum E3075
  2593 ;;  pin             1    0[COMRAM] unsigned char 
  2594 ;; Auto vars:     Size  Location     Type
  2595 ;;  portName        1    3[COMRAM] enum E3075
  2596 ;; Return value:  Size  Location     Type
  2597 ;;                  1    wreg      void 
  2598 ;; Registers used:
  2599 ;;		wreg, status,2, status,0
  2600 ;; Tracked objects:
  2601 ;;		On entry : 0/0
  2602 ;;		On exit  : 0/0
  2603 ;;		Unchanged: 0/0
  2604 ;; Data sizes:     COMRAM   BANK0   BANK1   BANK2
  2605 ;;      Params:         1       0       0       0
  2606 ;;      Locals:         1       0       0       0
  2607 ;;      Temps:          2       0       0       0
  2608 ;;      Totals:         4       0       0       0
  2609 ;;Total ram usage:        4 bytes
  2610 ;; Hardware stack levels used:    1
  2611 ;; This function calls:
  2612 ;;		Nothing
  2613 ;; This function is called by:
  2614 ;;		_LCDNokia_init
  2615 ;;		_LCDNokia_writeByte
  2616 ;; This function uses a non-reentrant model
  2617 ;;
  2618                           
  2619                           	psect	text14
  2620  001B7C                     __ptext14:
  2621                           	opt stack 0
  2622  001B7C                     _GPIO_clearPIN:
  2623                           	opt stack 28
  2624                           
  2625                           ;incstack = 0
  2626                           ;GPIO_clearPIN@portName stored from wreg
  2627  001B7C  6E49               	movwf	GPIO_clearPIN@portName,c
  2628                           
  2629                           ;GPIO.c: 173: switch(portName)
  2630  001B7E  D02A               	goto	l133
  2631  001B80                     
  2632                           ;GPIO.c: 176: PORTA &= ~(1<<pin);
  2633  001B80  C046  F047         	movff	GPIO_clearPIN@pin,??_GPIO_clearPIN
  2634  001B84  0E01               	movlw	1
  2635  001B86  6E48               	movwf	(??_GPIO_clearPIN+1)& (0+255),c
  2636  001B88  2A47               	incf	??_GPIO_clearPIN,f,c
  2637  001B8A  D002               	goto	u694
  2638  001B8C                     u695:
  2639  001B8C  90D8               	bcf	status,0,c
  2640  001B8E  3648               	rlcf	??_GPIO_clearPIN+1,f,c
  2641  001B90                     u694:
  2642  001B90  2E47               	decfsz	??_GPIO_clearPIN,f,c
  2643  001B92  D7FC               	goto	u695
  2644  001B94  5048               	movf	??_GPIO_clearPIN+1,w,c
  2645  001B96  0AFF               	xorlw	255
  2646  001B98  1680               	andwf	3968,f,c	;volatile
  2647                           
  2648                           ;GPIO.c: 177: break;
  2649  001B9A  0012               	return	
  2650  001B9C                     
  2651                           ;GPIO.c: 179: PORTB &= ~(1<<pin);
  2652  001B9C  C046  F047         	movff	GPIO_clearPIN@pin,??_GPIO_clearPIN
  2653  001BA0  0E01               	movlw	1
  2654  001BA2  6E48               	movwf	(??_GPIO_clearPIN+1)& (0+255),c
  2655  001BA4  2A47               	incf	??_GPIO_clearPIN,f,c
  2656  001BA6  D002               	goto	u704
  2657  001BA8                     u705:
  2658  001BA8  90D8               	bcf	status,0,c
  2659  001BAA  3648               	rlcf	??_GPIO_clearPIN+1,f,c
  2660  001BAC                     u704:
  2661  001BAC  2E47               	decfsz	??_GPIO_clearPIN,f,c
  2662  001BAE  D7FC               	goto	u705
  2663  001BB0  5048               	movf	??_GPIO_clearPIN+1,w,c
  2664  001BB2  0AFF               	xorlw	255
  2665  001BB4  1681               	andwf	3969,f,c	;volatile
  2666                           
  2667                           ;GPIO.c: 180: break;
  2668  001BB6  0012               	return	
  2669  001BB8                     
  2670                           ;GPIO.c: 182: PORTC &= ~(1<<pin);
  2671  001BB8  C046  F047         	movff	GPIO_clearPIN@pin,??_GPIO_clearPIN
  2672  001BBC  0E01               	movlw	1
  2673  001BBE  6E48               	movwf	(??_GPIO_clearPIN+1)& (0+255),c
  2674  001BC0  2A47               	incf	??_GPIO_clearPIN,f,c
  2675  001BC2  D002               	goto	u714
  2676  001BC4                     u715:
  2677  001BC4  90D8               	bcf	status,0,c
  2678  001BC6  3648               	rlcf	??_GPIO_clearPIN+1,f,c
  2679  001BC8                     u714:
  2680  001BC8  2E47               	decfsz	??_GPIO_clearPIN,f,c
  2681  001BCA  D7FC               	goto	u715
  2682  001BCC  5048               	movf	??_GPIO_clearPIN+1,w,c
  2683  001BCE  0AFF               	xorlw	255
  2684  001BD0  1682               	andwf	3970,f,c	;volatile
  2685                           
  2686                           ;GPIO.c: 186: }
  2687                           
  2688                           ;GPIO.c: 185: break;
  2689                           
  2690                           ;GPIO.c: 184: default:
  2691                           
  2692                           ;GPIO.c: 183: break;
  2693  001BD2  0012               	return	
  2694  001BD4                     l133:
  2695  001BD4  5049               	movf	GPIO_clearPIN@portName,w,c
  2696                           
  2697                           ; Switch size 1, requested type "space"
  2698                           ; Number of cases is 3, Range of values is 0 to 2
  2699                           ; switch strategies available:
  2700                           ; Name         Instructions Cycles
  2701                           ; simple_byte           10     6 (average)
  2702                           ;	Chosen strategy is simple_byte
  2703  001BD6  0A00               	xorlw	0	; case 0
  2704  001BD8  B4D8               	btfsc	status,2,c
  2705  001BDA  D7D2               	goto	l134
  2706  001BDC  0A01               	xorlw	1	; case 1
  2707  001BDE  B4D8               	btfsc	status,2,c
  2708  001BE0  D7DD               	goto	l136
  2709  001BE2  0A03               	xorlw	3	; case 2
  2710  001BE4  A4D8               	btfss	status,2,c
  2711  001BE6  0012               	return	
  2712  001BE8  D7E7               	goto	l137
  2713  001BEA                     __end_of_GPIO_clearPIN:
  2714                           	opt stack 0
  2715                           tblptru	equ	0xFF8
  2716                           tblptrh	equ	0xFF7
  2717                           tblptrl	equ	0xFF6
  2718                           tablat	equ	0xFF5
  2719                           prodh	equ	0xFF4
  2720                           prodl	equ	0xFF3
  2721                           postinc0	equ	0xFEE
  2722                           wreg	equ	0xFE8
  2723                           postdec1	equ	0xFE5
  2724                           plusw1	equ	0xFE3
  2725                           fsr1l	equ	0xFE1
  2726                           plusw2	equ	0xFDB
  2727                           status	equ	0xFD8
  2728                           
  2729 ;; *************** function _GPIO_sourceClock *****************
  2730 ;; Defined at:
  2731 ;;		line 18 in file "GPIO.c"
  2732 ;; Parameters:    Size  Location     Type
  2733 ;;  clk             1    wreg     enum E3061
  2734 ;; Auto vars:     Size  Location     Type
  2735 ;;  clk             1    0[COMRAM] enum E3061
  2736 ;; Return value:  Size  Location     Type
  2737 ;;                  1    wreg      void 
  2738 ;; Registers used:
  2739 ;;		wreg, status,2, status,0
  2740 ;; Tracked objects:
  2741 ;;		On entry : 0/0
  2742 ;;		On exit  : 0/0
  2743 ;;		Unchanged: 0/0
  2744 ;; Data sizes:     COMRAM   BANK0   BANK1   BANK2
  2745 ;;      Params:         0       0       0       0
  2746 ;;      Locals:         1       0       0       0
  2747 ;;      Temps:          0       0       0       0
  2748 ;;      Totals:         1       0       0       0
  2749 ;;Total ram usage:        1 bytes
  2750 ;; Hardware stack levels used:    1
  2751 ;; This function calls:
  2752 ;;		Nothing
  2753 ;; This function is called by:
  2754 ;;		_main
  2755 ;; This function uses a non-reentrant model
  2756 ;;
  2757                           
  2758                           	psect	text15
  2759  001AB4                     __ptext15:
  2760                           	opt stack 0
  2761  001AB4                     _GPIO_sourceClock:
  2762                           	opt stack 30
  2763                           
  2764                           ;incstack = 0
  2765                           ;GPIO_sourceClock@clk stored from wreg
  2766  001AB4  6E46               	movwf	GPIO_sourceClock@clk,c
  2767                           
  2768                           ;GPIO.c: 20: switch(clk)
  2769  001AB6  D014               	goto	l62
  2770  001AB8                     
  2771                           ;GPIO.c: 23: OSCCON |= (0x72);
  2772  001AB8  0E72               	movlw	114
  2773  001ABA  12D3               	iorwf	4051,f,c	;volatile
  2774                           
  2775                           ;GPIO.c: 24: break;
  2776  001ABC  0012               	return	
  2777  001ABE                     
  2778                           ;GPIO.c: 26: OSCCON |= (0x60);
  2779  001ABE  0E60               	movlw	96
  2780  001AC0  12D3               	iorwf	4051,f,c	;volatile
  2781                           
  2782                           ;GPIO.c: 27: break;
  2783  001AC2  0012               	return	
  2784  001AC4                     
  2785                           ;GPIO.c: 29: OSCCON |= (0x50);
  2786  001AC4  0E50               	movlw	80
  2787  001AC6  12D3               	iorwf	4051,f,c	;volatile
  2788                           
  2789                           ;GPIO.c: 30: break;
  2790  001AC8  0012               	return	
  2791  001ACA                     
  2792                           ;GPIO.c: 32: OSCCON |= (0x40);
  2793  001ACA  8CD3               	bsf	4051,6,c	;volatile
  2794                           
  2795                           ;GPIO.c: 33: break;
  2796  001ACC  0012               	return	
  2797  001ACE                     
  2798                           ;GPIO.c: 35: OSCCON |= (0x30);
  2799  001ACE  0E30               	movlw	48
  2800  001AD0  12D3               	iorwf	4051,f,c	;volatile
  2801                           
  2802                           ;GPIO.c: 36: break;
  2803  001AD2  0012               	return	
  2804  001AD4                     
  2805                           ;GPIO.c: 38: OSCCON |= (0x20);
  2806  001AD4  8AD3               	bsf	4051,5,c	;volatile
  2807                           
  2808                           ;GPIO.c: 39: break;
  2809  001AD6  0012               	return	
  2810  001AD8                     
  2811                           ;GPIO.c: 41: OSCCON |= (0x10);
  2812  001AD8  88D3               	bsf	4051,4,c	;volatile
  2813                           
  2814                           ;GPIO.c: 42: break;
  2815  001ADA  0012               	return	
  2816  001ADC                     
  2817                           ;GPIO.c: 44: OSCCON |= (0x00);
  2818  001ADC  50D3               	movf	4051,w,c	;volatile
  2819                           
  2820                           ;GPIO.c: 48: }
  2821                           
  2822                           ;GPIO.c: 47: break;
  2823                           
  2824                           ;GPIO.c: 46: default:
  2825                           
  2826                           ;GPIO.c: 45: break;
  2827  001ADE  0012               	return	
  2828  001AE0                     l62:
  2829  001AE0  5046               	movf	GPIO_sourceClock@clk,w,c
  2830                           
  2831                           ; Switch size 1, requested type "space"
  2832                           ; Number of cases is 8, Range of values is 0 to 7
  2833                           ; switch strategies available:
  2834                           ; Name         Instructions Cycles
  2835                           ; simple_byte           25    13 (average)
  2836                           ;	Chosen strategy is simple_byte
  2837  001AE2  0A00               	xorlw	0	; case 0
  2838  001AE4  B4D8               	btfsc	status,2,c
  2839  001AE6  D7E8               	goto	l63
  2840  001AE8  0A01               	xorlw	1	; case 1
  2841  001AEA  B4D8               	btfsc	status,2,c
  2842  001AEC  D7E8               	goto	l65
  2843  001AEE  0A03               	xorlw	3	; case 2
  2844  001AF0  B4D8               	btfsc	status,2,c
  2845  001AF2  D7E8               	goto	l66
  2846  001AF4  0A01               	xorlw	1	; case 3
  2847  001AF6  B4D8               	btfsc	status,2,c
  2848  001AF8  D7E8               	goto	l67
  2849  001AFA  0A07               	xorlw	7	; case 4
  2850  001AFC  B4D8               	btfsc	status,2,c
  2851  001AFE  D7E7               	goto	l68
  2852  001B00  0A01               	xorlw	1	; case 5
  2853  001B02  B4D8               	btfsc	status,2,c
  2854  001B04  D7E7               	goto	l69
  2855  001B06  0A03               	xorlw	3	; case 6
  2856  001B08  B4D8               	btfsc	status,2,c
  2857  001B0A  D7E6               	goto	l70
  2858  001B0C  0A01               	xorlw	1	; case 7
  2859  001B0E  A4D8               	btfss	status,2,c
  2860  001B10  0012               	return	
  2861  001B12  D7E4               	goto	l71
  2862  001B14                     __end_of_GPIO_sourceClock:
  2863                           	opt stack 0
  2864                           tblptru	equ	0xFF8
  2865                           tblptrh	equ	0xFF7
  2866                           tblptrl	equ	0xFF6
  2867                           tablat	equ	0xFF5
  2868                           prodh	equ	0xFF4
  2869                           prodl	equ	0xFF3
  2870                           postinc0	equ	0xFEE
  2871                           wreg	equ	0xFE8
  2872                           postdec1	equ	0xFE5
  2873                           plusw1	equ	0xFE3
  2874                           fsr1l	equ	0xFE1
  2875                           plusw2	equ	0xFDB
  2876                           status	equ	0xFD8
  2877                           
  2878 ;; *************** function _ButtonInt_config *****************
  2879 ;; Defined at:
  2880 ;;		line 63 in file "Buttons.c"
  2881 ;; Parameters:    Size  Location     Type
  2882 ;;		None
  2883 ;; Auto vars:     Size  Location     Type
  2884 ;;		None
  2885 ;; Return value:  Size  Location     Type
  2886 ;;                  1    wreg      void 
  2887 ;; Registers used:
  2888 ;;		wreg, status,2, status,0, cstack
  2889 ;; Tracked objects:
  2890 ;;		On entry : 0/0
  2891 ;;		On exit  : 0/0
  2892 ;;		Unchanged: 0/0
  2893 ;; Data sizes:     COMRAM   BANK0   BANK1   BANK2
  2894 ;;      Params:         0       0       0       0
  2895 ;;      Locals:         0       0       0       0
  2896 ;;      Temps:          0       0       0       0
  2897 ;;      Totals:         0       0       0       0
  2898 ;;Total ram usage:        0 bytes
  2899 ;; Hardware stack levels used:    1
  2900 ;; Hardware stack levels required when called:    1
  2901 ;; This function calls:
  2902 ;;		_GPIO_dataDirectionPIN
  2903 ;; This function is called by:
  2904 ;;		_main
  2905 ;; This function uses a non-reentrant model
  2906 ;;
  2907                           
  2908                           	psect	text16
  2909  0018FE                     __ptext16:
  2910                           	opt stack 0
  2911  0018FE                     _ButtonInt_config:
  2912                           	opt stack 29
  2913                           
  2914                           ;Buttons.c: 66: GPIO_dataDirectionPIN(GPIO_A, 3, GPIO_INPUT);
  2915                           
  2916                           ;incstack = 0
  2917  0018FE  0E03               	movlw	3
  2918  001900  6E46               	movwf	GPIO_dataDirectionPIN@pin,c
  2919  001902  0E00               	movlw	0
  2920  001904  6E47               	movwf	GPIO_dataDirectionPIN@state,c
  2921  001906  0E00               	movlw	0
  2922  001908  EC6D  F00E         	call	_GPIO_dataDirectionPIN
  2923                           
  2924                           ;Buttons.c: 67: ANSEL0bits.ANS3 = 0;
  2925  00190C  96B8               	bcf	4024,3,c	;volatile
  2926                           
  2927                           ;Buttons.c: 69: GPIO_dataDirectionPIN(GPIO_A, 4, GPIO_INPUT);
  2928  00190E  0E04               	movlw	4
  2929  001910  6E46               	movwf	GPIO_dataDirectionPIN@pin,c
  2930  001912  0E00               	movlw	0
  2931  001914  6E47               	movwf	GPIO_dataDirectionPIN@state,c
  2932  001916  0E00               	movlw	0
  2933  001918  EC6D  F00E         	call	_GPIO_dataDirectionPIN
  2934                           
  2935                           ;Buttons.c: 70: ANSEL0bits.ANS4 = 0;
  2936  00191C  98B8               	bcf	4024,4,c	;volatile
  2937                           
  2938                           ;Buttons.c: 72: GPIO_dataDirectionPIN(GPIO_C, 3, GPIO_INPUT);
  2939  00191E  0E03               	movlw	3
  2940  001920  6E46               	movwf	GPIO_dataDirectionPIN@pin,c
  2941  001922  0E00               	movlw	0
  2942  001924  6E47               	movwf	GPIO_dataDirectionPIN@state,c
  2943  001926  0E02               	movlw	2
  2944  001928  EC6D  F00E         	call	_GPIO_dataDirectionPIN
  2945  00192C  0012               	return		;funcret
  2946  00192E                     __end_of_ButtonInt_config:
  2947                           	opt stack 0
  2948                           tblptru	equ	0xFF8
  2949                           tblptrh	equ	0xFF7
  2950                           tblptrl	equ	0xFF6
  2951                           tablat	equ	0xFF5
  2952                           prodh	equ	0xFF4
  2953                           prodl	equ	0xFF3
  2954                           postinc0	equ	0xFEE
  2955                           wreg	equ	0xFE8
  2956                           postdec1	equ	0xFE5
  2957                           plusw1	equ	0xFE3
  2958                           fsr1l	equ	0xFE1
  2959                           plusw2	equ	0xFDB
  2960                           status	equ	0xFD8
  2961                           
  2962 ;; *************** function _GPIO_dataDirectionPIN *****************
  2963 ;; Defined at:
  2964 ;;		line 51 in file "GPIO.c"
  2965 ;; Parameters:    Size  Location     Type
  2966 ;;  portName        1    wreg     enum E3075
  2967 ;;  pin             1    0[COMRAM] unsigned char 
  2968 ;;  state           1    1[COMRAM] enum E3071
  2969 ;; Auto vars:     Size  Location     Type
  2970 ;;  portName        1    4[COMRAM] enum E3075
  2971 ;; Return value:  Size  Location     Type
  2972 ;;                  1    wreg      void 
  2973 ;; Registers used:
  2974 ;;		wreg, status,2, status,0
  2975 ;; Tracked objects:
  2976 ;;		On entry : 0/0
  2977 ;;		On exit  : 0/0
  2978 ;;		Unchanged: 0/0
  2979 ;; Data sizes:     COMRAM   BANK0   BANK1   BANK2
  2980 ;;      Params:         2       0       0       0
  2981 ;;      Locals:         1       0       0       0
  2982 ;;      Temps:          2       0       0       0
  2983 ;;      Totals:         5       0       0       0
  2984 ;;Total ram usage:        5 bytes
  2985 ;; Hardware stack levels used:    1
  2986 ;; This function calls:
  2987 ;;		Nothing
  2988 ;; This function is called by:
  2989 ;;		_LCDNokia_init
  2990 ;;		_ButtonInt_config
  2991 ;;		_UART_init
  2992 ;;		_ATM_IC
  2993 ;; This function uses a non-reentrant model
  2994 ;;
  2995                           
  2996                           	psect	text17
  2997  001CDA                     __ptext17:
  2998                           	opt stack 0
  2999  001CDA                     _GPIO_dataDirectionPIN:
  3000                           	opt stack 29
  3001                           
  3002                           ;incstack = 0
  3003                           ;GPIO_dataDirectionPIN@portName stored from wreg
  3004  001CDA  6E4A               	movwf	GPIO_dataDirectionPIN@portName,c
  3005                           
  3006                           ;GPIO.c: 54: switch(state)
  3007  001CDC  D064               	goto	l76
  3008  001CDE                     
  3009                           ;GPIO.c: 60: TRISA |= 1<<pin;
  3010  001CDE  C046  F048         	movff	GPIO_dataDirectionPIN@pin,??_GPIO_dataDirectionPIN
  3011  001CE2  0E01               	movlw	1
  3012  001CE4  6E49               	movwf	(??_GPIO_dataDirectionPIN+1)& (0+255),c
  3013  001CE6  2A48               	incf	??_GPIO_dataDirectionPIN,f,c
  3014  001CE8  D002               	goto	u744
  3015  001CEA                     u745:
  3016  001CEA  90D8               	bcf	status,0,c
  3017  001CEC  3649               	rlcf	??_GPIO_dataDirectionPIN+1,f,c
  3018  001CEE                     u744:
  3019  001CEE  2E48               	decfsz	??_GPIO_dataDirectionPIN,f,c
  3020  001CF0  D7FC               	goto	u745
  3021  001CF2  5049               	movf	??_GPIO_dataDirectionPIN+1,w,c
  3022  001CF4  1292               	iorwf	3986,f,c	;volatile
  3023                           
  3024                           ;GPIO.c: 61: break;
  3025  001CF6  0012               	return	
  3026  001CF8                     
  3027                           ;GPIO.c: 63: TRISB |= 1<<pin;
  3028  001CF8  C046  F048         	movff	GPIO_dataDirectionPIN@pin,??_GPIO_dataDirectionPIN
  3029  001CFC  0E01               	movlw	1
  3030  001CFE  6E49               	movwf	(??_GPIO_dataDirectionPIN+1)& (0+255),c
  3031  001D00  2A48               	incf	??_GPIO_dataDirectionPIN,f,c
  3032  001D02  D002               	goto	u754
  3033  001D04                     u755:
  3034  001D04  90D8               	bcf	status,0,c
  3035  001D06  3649               	rlcf	??_GPIO_dataDirectionPIN+1,f,c
  3036  001D08                     u754:
  3037  001D08  2E48               	decfsz	??_GPIO_dataDirectionPIN,f,c
  3038  001D0A  D7FC               	goto	u755
  3039  001D0C  5049               	movf	??_GPIO_dataDirectionPIN+1,w,c
  3040  001D0E  1293               	iorwf	3987,f,c	;volatile
  3041                           
  3042                           ;GPIO.c: 64: break;
  3043  001D10  0012               	return	
  3044  001D12                     
  3045                           ;GPIO.c: 66: TRISC |= 1<<pin;
  3046  001D12  C046  F048         	movff	GPIO_dataDirectionPIN@pin,??_GPIO_dataDirectionPIN
  3047  001D16  0E01               	movlw	1
  3048  001D18  6E49               	movwf	(??_GPIO_dataDirectionPIN+1)& (0+255),c
  3049  001D1A  2A48               	incf	??_GPIO_dataDirectionPIN,f,c
  3050  001D1C  D002               	goto	u764
  3051  001D1E                     u765:
  3052  001D1E  90D8               	bcf	status,0,c
  3053  001D20  3649               	rlcf	??_GPIO_dataDirectionPIN+1,f,c
  3054  001D22                     u764:
  3055  001D22  2E48               	decfsz	??_GPIO_dataDirectionPIN,f,c
  3056  001D24  D7FC               	goto	u765
  3057  001D26  5049               	movf	??_GPIO_dataDirectionPIN+1,w,c
  3058  001D28  1294               	iorwf	3988,f,c	;volatile
  3059                           
  3060                           ;GPIO.c: 70: }
  3061                           
  3062                           ;GPIO.c: 69: break;
  3063                           
  3064                           ;GPIO.c: 68: default:
  3065                           
  3066                           ;GPIO.c: 67: break;
  3067  001D2A  0012               	return	
  3068  001D2C  504A               	movf	GPIO_dataDirectionPIN@portName,w,c
  3069                           
  3070                           ; Switch size 1, requested type "space"
  3071                           ; Number of cases is 3, Range of values is 0 to 2
  3072                           ; switch strategies available:
  3073                           ; Name         Instructions Cycles
  3074                           ; simple_byte           10     6 (average)
  3075                           ;	Chosen strategy is simple_byte
  3076  001D2E  0A00               	xorlw	0	; case 0
  3077  001D30  B4D8               	btfsc	status,2,c
  3078  001D32  D7D5               	goto	l79
  3079  001D34  0A01               	xorlw	1	; case 1
  3080  001D36  B4D8               	btfsc	status,2,c
  3081  001D38  D7DF               	goto	l81
  3082  001D3A  0A03               	xorlw	3	; case 2
  3083  001D3C  A4D8               	btfss	status,2,c
  3084                           
  3085                           ;GPIO.c: 71: break;
  3086  001D3E  0012               	return	
  3087  001D40  D7E8               	goto	l82
  3088  001D42                     
  3089                           ;GPIO.c: 76: TRISA &= (0<<pin);
  3090  001D42  C046  F048         	movff	GPIO_dataDirectionPIN@pin,??_GPIO_dataDirectionPIN
  3091  001D46  0E00               	movlw	0
  3092  001D48  6E49               	movwf	(??_GPIO_dataDirectionPIN+1)& (0+255),c
  3093  001D4A  2A48               	incf	??_GPIO_dataDirectionPIN,f,c
  3094  001D4C  D002               	goto	u774
  3095  001D4E                     u775:
  3096  001D4E  90D8               	bcf	status,0,c
  3097  001D50  3649               	rlcf	??_GPIO_dataDirectionPIN+1,f,c
  3098  001D52                     u774:
  3099  001D52  2E48               	decfsz	??_GPIO_dataDirectionPIN,f,c
  3100  001D54  D7FC               	goto	u775
  3101  001D56  5049               	movf	??_GPIO_dataDirectionPIN+1,w,c
  3102  001D58  1692               	andwf	3986,f,c	;volatile
  3103                           
  3104                           ;GPIO.c: 77: break;
  3105  001D5A  0012               	return	
  3106  001D5C                     
  3107                           ;GPIO.c: 79: TRISB &= (0<<pin);
  3108  001D5C  C046  F048         	movff	GPIO_dataDirectionPIN@pin,??_GPIO_dataDirectionPIN
  3109  001D60  0E00               	movlw	0
  3110  001D62  6E49               	movwf	(??_GPIO_dataDirectionPIN+1)& (0+255),c
  3111  001D64  2A48               	incf	??_GPIO_dataDirectionPIN,f,c
  3112  001D66  D002               	goto	u784
  3113  001D68                     u785:
  3114  001D68  90D8               	bcf	status,0,c
  3115  001D6A  3649               	rlcf	??_GPIO_dataDirectionPIN+1,f,c
  3116  001D6C                     u784:
  3117  001D6C  2E48               	decfsz	??_GPIO_dataDirectionPIN,f,c
  3118  001D6E  D7FC               	goto	u785
  3119  001D70  5049               	movf	??_GPIO_dataDirectionPIN+1,w,c
  3120  001D72  1693               	andwf	3987,f,c	;volatile
  3121                           
  3122                           ;GPIO.c: 80: break;
  3123  001D74  0012               	return	
  3124  001D76                     
  3125                           ;GPIO.c: 82: TRISC &= (0<<pin);
  3126  001D76  C046  F048         	movff	GPIO_dataDirectionPIN@pin,??_GPIO_dataDirectionPIN
  3127  001D7A  0E00               	movlw	0
  3128  001D7C  6E49               	movwf	(??_GPIO_dataDirectionPIN+1)& (0+255),c
  3129  001D7E  2A48               	incf	??_GPIO_dataDirectionPIN,f,c
  3130  001D80  D002               	goto	u794
  3131  001D82                     u795:
  3132  001D82  90D8               	bcf	status,0,c
  3133  001D84  3649               	rlcf	??_GPIO_dataDirectionPIN+1,f,c
  3134  001D86                     u794:
  3135  001D86  2E48               	decfsz	??_GPIO_dataDirectionPIN,f,c
  3136  001D88  D7FC               	goto	u795
  3137  001D8A  5049               	movf	??_GPIO_dataDirectionPIN+1,w,c
  3138  001D8C  1694               	andwf	3988,f,c	;volatile
  3139                           
  3140                           ;GPIO.c: 86: }
  3141                           
  3142                           ;GPIO.c: 85: break;
  3143                           
  3144                           ;GPIO.c: 84: default:
  3145                           
  3146                           ;GPIO.c: 83: break;
  3147  001D8E  0012               	return	
  3148  001D90  504A               	movf	GPIO_dataDirectionPIN@portName,w,c
  3149                           
  3150                           ; Switch size 1, requested type "space"
  3151                           ; Number of cases is 3, Range of values is 0 to 2
  3152                           ; switch strategies available:
  3153                           ; Name         Instructions Cycles
  3154                           ; simple_byte           10     6 (average)
  3155                           ;	Chosen strategy is simple_byte
  3156  001D92  0A00               	xorlw	0	; case 0
  3157  001D94  B4D8               	btfsc	status,2,c
  3158  001D96  D7D5               	goto	l87
  3159  001D98  0A01               	xorlw	1	; case 1
  3160  001D9A  B4D8               	btfsc	status,2,c
  3161  001D9C  D7DF               	goto	l89
  3162  001D9E  0A03               	xorlw	3	; case 2
  3163  001DA0  A4D8               	btfss	status,2,c
  3164                           
  3165                           ;GPIO.c: 90: }
  3166                           
  3167                           ;GPIO.c: 89: break;
  3168                           
  3169                           ;GPIO.c: 88: default:
  3170                           
  3171                           ;GPIO.c: 87: break;
  3172  001DA2  0012               	return	
  3173  001DA4  D7E8               	goto	l90
  3174  001DA6                     l76:
  3175  001DA6  5047               	movf	GPIO_dataDirectionPIN@state,w,c
  3176                           
  3177                           ; Switch size 1, requested type "space"
  3178                           ; Number of cases is 2, Range of values is 0 to 1
  3179                           ; switch strategies available:
  3180                           ; Name         Instructions Cycles
  3181                           ; simple_byte            7     4 (average)
  3182                           ;	Chosen strategy is simple_byte
  3183  001DA8  0A00               	xorlw	0	; case 0
  3184  001DAA  B4D8               	btfsc	status,2,c
  3185  001DAC  D7BF               	goto	l78
  3186  001DAE  0A01               	xorlw	1	; case 1
  3187  001DB0  A4D8               	btfss	status,2,c
  3188  001DB2  0012               	return	
  3189  001DB4  D7ED               	goto	l86
  3190  001DB6                     __end_of_GPIO_dataDirectionPIN:
  3191                           	opt stack 0
  3192                           tblptru	equ	0xFF8
  3193                           tblptrh	equ	0xFF7
  3194                           tblptrl	equ	0xFF6
  3195                           tablat	equ	0xFF5
  3196                           prodh	equ	0xFF4
  3197                           prodl	equ	0xFF3
  3198                           postinc0	equ	0xFEE
  3199                           wreg	equ	0xFE8
  3200                           postdec1	equ	0xFE5
  3201                           plusw1	equ	0xFE3
  3202                           fsr1l	equ	0xFE1
  3203                           plusw2	equ	0xFDB
  3204                           status	equ	0xFD8
  3205                           tblptru	equ	0xFF8
  3206                           tblptrh	equ	0xFF7
  3207                           tblptrl	equ	0xFF6
  3208                           tablat	equ	0xFF5
  3209                           prodh	equ	0xFF4
  3210                           prodl	equ	0xFF3
  3211                           postinc0	equ	0xFEE
  3212                           wreg	equ	0xFE8
  3213                           postdec1	equ	0xFE5
  3214                           plusw1	equ	0xFE3
  3215                           fsr1l	equ	0xFE1
  3216                           plusw2	equ	0xFDB
  3217                           status	equ	0xFD8
  3218                           
  3219                           	psect	rparam
  3220  0000                     tblptru	equ	0xFF8
  3221                           tblptrh	equ	0xFF7
  3222                           tblptrl	equ	0xFF6
  3223                           tablat	equ	0xFF5
  3224                           prodh	equ	0xFF4
  3225                           prodl	equ	0xFF3
  3226                           postinc0	equ	0xFEE
  3227                           wreg	equ	0xFE8
  3228                           postdec1	equ	0xFE5
  3229                           plusw1	equ	0xFE3
  3230                           fsr1l	equ	0xFE1
  3231                           plusw2	equ	0xFDB
  3232                           status	equ	0xFD8


Data Sizes:
    Strings     0
    Constant    584
    Data        11
    BSS         102
    Persistent  0
    Stack       0

Auto Spaces:
    Space          Size  Autos    Used
    COMRAM           95     26      95
    BANK0           160      0      44
    BANK1           256      0       0
    BANK2           256      0       0

Pointer List with Targets:

    S919PhaseTemperature$PhaseTemperature	PTR FTN(struct .,)struct . size(2) Largest target is 3
		 -> exitTemperature(), showTemperature(), 

    phasesTemperature.PhaseTemperature	PTR FTN(struct .,)struct . size(2) Largest target is 3
		 -> exitTemperature(), showTemperature(), 

    S895PhaseFrequency$PhaseFrequency	PTR FTN(struct .,)struct . size(2) Largest target is 3
		 -> exitFrequency(), showFrequency(), 

    phasesFrequency.PhaseFrequency	PTR FTN(struct .,)struct . size(2) Largest target is 3
		 -> exitFrequency(), showFrequency(), 

    S866PhasePhaseAngle$PhasePhaseAngle	PTR FTN(struct .,)struct . size(2) Largest target is 3
		 -> exitPhaseAngle(), viPhaseAngle(), phPhaseAngle(), 

    phasesPhaseAngle.PhasePhaseAngle	PTR FTN(struct .,)struct . size(2) Largest target is 3
		 -> exitPhaseAngle(), viPhaseAngle(), phPhaseAngle(), 

    S841PhasePowerFactor$PhasePowerFactor	PTR FTN(struct .,)struct . size(2) Largest target is 2
		 -> exitPowerFactor(), phPowerFactor(), 

    phasesPowerFactor.PhasePowerFactor	PTR FTN(struct .,)struct . size(2) Largest target is 2
		 -> exitPowerFactor(), phPowerFactor(), 

    S813PhaseRmsVI$PhaseRmsVI	PTR FTN(struct .,)struct . size(2) Largest target is 3
		 -> exitRmsVI(), neutralRmsVI(), phRmsVI(), 

    phasesRmsVI.PhaseRmsVI	PTR FTN(struct .,)struct . size(2) Largest target is 3
		 -> exitRmsVI(), neutralRmsVI(), phRmsVI(), 

    S783PhasePower2$PhasePower2	PTR FTN(struct .,)struct . size(2) Largest target is 3
		 -> exitPower2(), phPower2(), fhPower2(), 

    phasesPower2.PhasePower2	PTR FTN(struct .,)struct . size(2) Largest target is 3
		 -> exitPower2(), phPower2(), fhPower2(), 

    S748PhasePower1$PhasePower1	PTR FTN(struct .,)struct . size(2) Largest target is 3
		 -> exitPower1(), vectorPower1(), phPower1(), typesPower1(), 

    phasesPower1.PhasePower1	PTR FTN(struct .,)struct . size(2) Largest target is 3
		 -> exitPower1(), vectorPower1(), phPower1(), typesPower1(), 

    S712PhaseMainMenu$PhaseMainMenu	PTR FTN(struct .,)struct . size(2) Largest target is 2
		 -> sendData(), viewMenu(), generalView(), initialLoad(), 

    phasesMainMenu.PhaseMainMenu	PTR FTN(struct .,)struct . size(2) Largest target is 2
		 -> sendData(), viewMenu(), generalView(), initialLoad(), 

    SPI_init@SPI_Config	PTR const struct . size(2) Largest target is 3
		 -> SPI_Config(CODE[3]), 

    S45State$stateFunction	PTR FTN()enum E3248 size(2) Largest target is 1
		 -> stateTemperature(), stateFrequency(), statePhaseAngle(), statePowerFactor(), 
		 -> stateRmsVI(), statePower2(), statePower1(), stateMainMenu(), 

    StateProgram.stateFunction	PTR FTN()enum E3248 size(2) Largest target is 1
		 -> stateTemperature(), stateFrequency(), statePhaseAngle(), statePowerFactor(), 
		 -> stateRmsVI(), statePower2(), statePower1(), stateMainMenu(), 


Critical Paths under _main in COMRAM

    _main->_LCDNokia_sendChar
    _SPI_init->_SPI_enableClock
    _LCDNokia_sendChar->_LCDNokia_writeByte
    _LCDNokia_init->_LCDNokia_writeByte
    _LCDNokia_clear->_LCDNokia_gotoXY
    _LCDNokia_gotoXY->_LCDNokia_writeByte
    _LCDNokia_writeByte->___wmul
    _ButtonInt_config->_GPIO_dataDirectionPIN

Critical Paths under _main in BANK0

    None.

Critical Paths under _main in BANK1

    None.

Critical Paths under _main in BANK2

    None.

Call Graph Tables:

 ---------------------------------------------------------------------------------
 (Depth) Function   	        Calls       Base Space   Used Autos Params    Refs
 ---------------------------------------------------------------------------------
 (0) _main                                                15    15      0   10610
                                             13 COMRAM    13    13      0
                   _ButtonInt_config
                   _GPIO_sourceClock
                     _LCDNokia_clear
                      _LCDNokia_init
                  _LCDNokia_sendChar
                           _SPI_init
                              _delay
 ---------------------------------------------------------------------------------
 (1) _delay                                                8     4      4     220
                                              0 COMRAM     8     4      4
 ---------------------------------------------------------------------------------
 (1) _SPI_init                                             4     2      2     284
                                              2 COMRAM     4     2      2
                    _SPI_enableClock
                     _SPI_enablePins
 ---------------------------------------------------------------------------------
 (2) _SPI_enablePins                                       1     1      0      22
                                              0 COMRAM     1     1      0
 ---------------------------------------------------------------------------------
 (2) _SPI_enableClock                                      2     1      1     120
                                              0 COMRAM     2     1      1
 ---------------------------------------------------------------------------------
 (1) _LCDNokia_sendChar                                    5     5      0    1936
                                              8 COMRAM     5     5      0
                 _LCDNokia_writeByte
                             ___wmul
 ---------------------------------------------------------------------------------
 (2) ___wmul                                               6     2      4     311
                                              0 COMRAM     6     2      4
 ---------------------------------------------------------------------------------
 (1) _LCDNokia_init                                        0     0      0    3322
                      _GPIO_clearPIN
              _GPIO_dataDirectionPIN
                        _GPIO_setPIN
                 _LCDNokia_writeByte
                          _LCD_delay
 ---------------------------------------------------------------------------------
 (2) _LCD_delay                                            4     4      0      46
                                              0 COMRAM     4     4      0
 ---------------------------------------------------------------------------------
 (1) _LCDNokia_clear                                       2     2      0    3539
                                             10 COMRAM     2     2      0
                    _LCDNokia_gotoXY
                 _LCDNokia_writeByte
 ---------------------------------------------------------------------------------
 (2) _LCDNokia_gotoXY                                      2     1      1    1958
                                              8 COMRAM     2     1      1
                 _LCDNokia_writeByte
 ---------------------------------------------------------------------------------
 (2) _LCDNokia_writeByte                                   2     1      1    1534
                                              6 COMRAM     2     1      1
                      _GPIO_clearPIN
                        _GPIO_setPIN
                          _SPI_write
                             ___wmul (ARG)
 ---------------------------------------------------------------------------------
 (3) _SPI_write                                            2     2      0      22
                                              0 COMRAM     1     1      0
 ---------------------------------------------------------------------------------
 (3) _GPIO_setPIN                                          4     3      1     240
                                              0 COMRAM     4     3      1
 ---------------------------------------------------------------------------------
 (3) _GPIO_clearPIN                                        4     3      1     240
                                              0 COMRAM     4     3      1
 ---------------------------------------------------------------------------------
 (1) _GPIO_sourceClock                                     1     1      0      22
                                              0 COMRAM     1     1      0
 ---------------------------------------------------------------------------------
 (1) _ButtonInt_config                                     0     0      0    1262
              _GPIO_dataDirectionPIN
 ---------------------------------------------------------------------------------
 (2) _GPIO_dataDirectionPIN                                5     3      2    1262
                                              0 COMRAM     5     3      2
 ---------------------------------------------------------------------------------
 Estimated maximum stack depth 3
 ---------------------------------------------------------------------------------

 Call Graph Graphs:

 _main (ROOT)
   _ButtonInt_config
     _GPIO_dataDirectionPIN
   _GPIO_sourceClock
   _LCDNokia_clear
     _LCDNokia_gotoXY
       _LCDNokia_writeByte
         _GPIO_clearPIN
         _GPIO_setPIN
         _SPI_write
         ___wmul (ARG)
     _LCDNokia_writeByte
       _GPIO_clearPIN
       _GPIO_setPIN
       _SPI_write
       ___wmul (ARG)
   _LCDNokia_init
     _GPIO_clearPIN
     _GPIO_dataDirectionPIN
     _GPIO_setPIN
     _LCDNokia_writeByte
       _GPIO_clearPIN
       _GPIO_setPIN
       _SPI_write
       ___wmul (ARG)
     _LCD_delay
   _LCDNokia_sendChar
     _LCDNokia_writeByte
       _GPIO_clearPIN
       _GPIO_setPIN
       _SPI_write
       ___wmul (ARG)
     ___wmul
   _SPI_init
     _SPI_enableClock
     _SPI_enablePins
   _delay

 Address spaces:
Name               Size   Autos  Total    Cost      Usage
BIGRAM             2FF      0       0      10        0.0%
EEDATA             100      0       0       0        0.0%
BITBANK2           100      0       0       8        0.0%
BANK2              100      0       0       9        0.0%
BITBANK1           100      0       0       6        0.0%
BANK1              100      0       0       7        0.0%
BITBANK0            A0      0       0       4        0.0%
BANK0               A0      0      2C       5       27.5%
BITCOMRAM           5F      0       0       0        0.0%
COMRAM              5F     1A      5F       1      100.0%
BITSFR               0      0       0     200        0.0%
SFR                  0      0       0     200        0.0%
STACK                0      0       0       2        0.0%
NULL                 0      0       0       0        0.0%
ABS                  0      0      8B       3        0.0%
DATA                 0      0      8B      11        0.0%
CODE                 0      0       0       0        0.0%


Microchip Technology PIC18 Macro Assembler V1.44 build -154322312 
Symbol Table                                                                                   Fri Jun 08 20:32:50 2018

                    _LCDNokia_clear 1960                       _LCDNokia_init 1BEA  
                     _stateMainMenu 000000             __size_of_SPI_enablePins 002C  
                       _statePower1 000000                         _statePower2 000000  
                  GPIO_clearPIN@pin 0046                     _LCDNokia_gotoXY 1842  
          __size_of_SPI_enableClock 003E                         _SSPSTATbits 000FC7  
                                l41 1A98                                  l62 1AE0  
                                l70 1AD8                                  l71 1ADC  
                                l63 1AB8                                  l81 1CF8  
                                l65 1ABE                                  l90 1D76  
                                l82 1D12                                  l66 1AC4  
                                l67 1ACA                                  l76 1DA6  
                                l68 1ACE                                  l69 1AD4  
                                l86 1D90                                  l78 1D2C  
                                l87 1D42                                  l79 1CDE  
                                l89 1D5C                 ___wmul@multiplicand 0048  
            __size_of_GPIO_clearPIN 006E                        __CFG_CP0$OFF 000000  
                      __CFG_CP1$OFF 000000                                 l124 1B66  
                               l133 1BD4                                 l125 1B18  
                               l134 1B80                                 l127 1B32  
                               l136 1B9C                                 l128 1B4C  
                               l137 1BB8                                 l161 19AE  
                               l162 19A6                                 l164 19AA  
                               l166 19C6                                 l174 18E4  
                               l167 19BE                                 l175 18D6  
                               l176 18F8                                 l169 19C2  
                               l177 18DC                                 l178 18E0  
                               l187 183A                                 l541 1872  
                               l542 187C                                 l567 195E  
                      __CFG_CPB$OFF 000000                      _stateFrequency 000000  
                      __CFG_CPD$OFF 000000                                 u704 1BAC  
                               u705 1BA8                                 u714 1BC8  
                               u715 1BC4                                 u830 198C  
                               u744 1CEE                                 u664 1B28  
                               u745 1CEA                                 u665 1B24  
                               u754 1D08                                 u674 1B42  
                               u850 1CCE                                 u755 1D04  
                               u675 1B3E                                 u931 1A90  
                               u764 1D22                                 u684 1B5C  
                               u765 1D1E                                 u685 1B58  
                               u774 1D52                                 u694 1B90  
                               u775 1D4E                                 u695 1B8C  
                               u784 1D6C                                 u785 1D68  
                               u794 1D86                                 u795 1D82  
                               wreg 000FE8                        __CFG_IESO$ON 000000  
                      __CFG_LVP$OFF 000000             phPower1@currentPower1_2 0011  
                              l2122 18BA                                l2044 193E  
                              l2108 1C78                                l2118 1CCE  
                              l2084 1970                   _LCDNokia_sendChar 1C5C  
                     __CFG_FCMEN$ON 000000                        ?_GPIO_setPIN 0046  
                ?_LCDNokia_sendChar 0046                                _main 1A60  
exitTemperature@currentTemperature2 0060                                fsr1l 000FE1  
                     __CFG_BOREN$ON 000000                                prodh 000FF4  
                              prodl 000FF3                                start 0000  
            __end_of_LCDNokia_clear 1998                  __size_of_LCD_delay 0032  
                   _statePhaseAngle 000000                      ?_LCDNokia_init 0046  
               ??_LCDNokia_sendChar 004E                        ___param_bank 000000  
            LCDNokia_sendChar@index 0051                  phRmsVI@currentRms1 007B  
                  _ButtonInt_config 18FE                               ?_main 0046  
                             _ASCII 1DB7                               _SPBRG 000FAF  
                             _PORTA 000F80                               _PORTB 000F81  
                             _PORTC 000F82                               _TRISA 000F92  
                             _TRISB 000F93                               _TRISC 000F94  
                             _TXREG 000FAD                       __CFG_WRT0$OFF 000000  
                     __CFG_WRT1$OFF 000000                      __CFG_EBTR0$OFF 000000  
                    __CFG_EBTR1$OFF 000000                       __CFG_WRTB$OFF 000000  
                     __CFG_WRTC$OFF 000000                      GPIO_setPIN@pin 0046  
                     __CFG_WRTD$OFF 000000           __end_of_LCDNokia_sendChar 1CDA  
                    __CFG_EBTRB$OFF 000000                               _delay 18AA  
          viewMenu@currentMainMenu3 002F                         _typesPower1 000000  
                             tablat 000FF5                    __end_of_SPI_init 1A60  
                     _GPIO_clearPIN 1B7C                               plusw1 000FE3  
                             plusw2 000FDB                               status 000FD8  
           phPower2@currentPower2_2 0005           __size_of_GPIO_sourceClock 0060  
           __end_of_LCDNokia_gotoXY 185E                     ?_LCDNokia_clear 0046  
                __size_of_SPI_write 000E                      __CFG_MCLRE$OFF 000000  
                   __initialization 19D6                      __CFG_HPOL$HIGH 000000  
                       _FlagButton1 003B                         _FlagButton2 003A  
                       _FlagButton3 0039                        __end_of_main 1AB4  
                _LCDNokia_writeByte 185E                      __CFG_OSC$IRCIO 000000  
                    __CFG_LPOL$HIGH 000000                              ??_main 0053  
                     __activetblptr 000002                 ?_LCDNokia_writeByte 004C  
    phPhaseAngle@currentPhaseAngle1 0072                   ??_SPI_enableClock 0047  
                 __end_of_LCD_delay 1960                       main@arrayTest 0053  
                            ?_delay 0046                              _ANSEL0 000FB8  
                  generalView@F3411 1FA7                    generalView@F3413 1FB3  
                  generalView@F3415 1FCD                    generalView@F3417 1FEB  
    exitFrequency@currentFrequency2 0066                      ?_GPIO_clearPIN 0046  
                    __CFG_WDTEN$OFF 000000                              _OSCCON 000FD3  
                    __CFG_WINEN$OFF 000000                              _SSPCON 000FC6  
                            _SSPBUF 000FC9                ??_LCDNokia_writeByte 004D  
                   ??_LCDNokia_init 004E                       _phPowerFactor 000000  
              generalView@lockClear 003D                    LCDNokia_gotoXY@x 004F  
                  LCDNokia_gotoXY@y 004E                generalView@lockWrite 003C  
       initialLoad@currentMainMenu1 0033                      _SPI_enablePins 18D2  
                            ___wmul 1884      __size_of_GPIO_dataDirectionPIN 00DC  
                    __CFG_STVREN$ON 000000       __end_of_GPIO_dataDirectionPIN 1DB6  
                            clear_0 19FC                              clear_1 1A08  
               SPI_enableClock@cpol 0046                       sendData@F3425 1FE6  
                      __mediumconst 1DB6                              tblptrh 000FF7  
                            tblptrl 000FF6                              tblptru 000FF8  
                 __end_of_SPI_write 1842          __size_of_LCDNokia_sendChar 007E  
                  _stateTemperature 000000                          __accesstop 0060  
           __end_of__initialization 1A0E                       __end_of_ASCII 1F97  
                     ___rparam_used 000001                __size_of_GPIO_setPIN 0068  
                  ?_LCDNokia_gotoXY 004E              __end_of_SPI_enablePins 18FE  
                  _statePowerFactor 000000                     __CFG_T1OSCMX$ON 000000  
                   stateRmsVI@phase 0042                 GPIO_setPIN@portName 0049  
           neutralRmsVI@currentRms2 0078                      __pcstackCOMRAM 0046  
                      __pidataBANK0 1829                       __end_of_delay 18D2  
                 _phasesTemperature 1FF0                           ?_SPI_init 0048  
                     _exitFrequency 000000               GPIO_clearPIN@portName 0049  
                   _exitTemperature 000000                             ??_delay 004A  
                   ??_GPIO_clearPIN 0047    exitPhaseAngle@currentPhaseAngle3 006C  
                 _phasesPowerFactor 1FF8                          __pbssBANK0 0060  
          __end_of_ButtonInt_config 192E                    _GPIO_sourceClock 1AB4  
                   _exitPowerFactor 000000                     ?_SPI_enablePins 0046  
                           ?___wmul 0046                     __CFG_WDPS$32768 000000  
         __end_of_phasesTemperature 1FF4          LCDNokia_sendChar@character 0050  
                        ??_SPI_init 004A           __end_of_phasesPowerFactor 1FFC  
       LCDNokia_writeByte@DataOrCmd 004D                             _SSPSTAT 000FC7  
             stateTemperature@phase 003E                    ??_LCDNokia_clear 0050  
    viPhaseAngle@currentPhaseAngle2 006F                     __CFG_PWMPIN$OFF 000000  
                   __CFG_PWRTEN$OFF 000000                             __Hparam 0000  
                           __Lparam 0000                     _SPI_enableClock 1998  
                SPI_init@SPI_Config 0048                     __size_of___wmul 0026  
            statePower1@phasePower1 0026            __end_ofgeneralView@F3411 1FB3  
          __end_ofgeneralView@F3413 1FBD            __end_ofgeneralView@F3415 1FD4  
          __end_ofgeneralView@F3417 1FF0                 LCDNokia_clear@index 0050  
     GPIO_dataDirectionPIN@portName 004A                             __pcinit 19D6  
           fhPower2@currentPower2_1 0008                          _exitPower1 000000  
                        _exitPower2 000000                             __ramtop 0300  
                           __ptext0 1A60                             __ptext1 18AA  
                           __ptext2 1A18                             __ptext3 18D2  
                           __ptext4 1998                             __ptext5 1C5C  
                           __ptext6 1884                             __ptext7 1BEA  
                           __ptext8 192E                             __ptext9 1960  
        typesPower1@currentPower1_1 0014                             _phRmsVI 000000  
                        delay@delay 0046                     _showTemperature 000000  
                __end_of_SPI_Config 1FFF                           _LCD_delay 192E  
              end_of_initialization 1A0E      showFrequency@currentFrequency1 0069  
                     __Lmediumconst 1DB6                SPI_enableClock@phase 0047  
            stateMainMenu@phaseMain 0037                 GPIO_sourceClock@clk 0046  
                         _RCSTAbits 000FAB                             postdec1 000FE5  
                           postinc0 000FEE              statePower2@phasePower2 0023  
                         _PORTAbits 000F80                           _PORTCbits 000F82  
              __end_of_phasesPower1 1FC5                __end_of_phasesPower2 1FE6  
              exitRmsVI@currentRms3 0075      statePhaseAngle@phasePhaseAngle 001D  
                         _TRISCbits 000F94                          _stateRmsVI 000000  
                        ?_LCD_delay 0046                           _SPI_write 1834  
                  main@currentState 005E             __end_of_SPI_enableClock 19D6  
                         _TXSTAbits 000FAC         __size_of_LCDNokia_writeByte 0026  
                      _phPhaseAngle 000000               __end_of_LCDNokia_init 1C5C  
  stateTemperature@phaseTemperature 0017                      __end_of___wmul 18AA  
                       _BAUDCTLbits 000FAA               _GPIO_dataDirectionPIN 1CDA  
      stateFrequency@phaseFrequency 001A            __end_of_GPIO_sourceClock 1B14  
               start_initialization 19D6                   __size_of_SPI_init 0048  
              stateRmsVI@phaseRmsVI 0020                          ?_SPI_write 0046  
                  ??_SPI_enablePins 0046                       ??_GPIO_setPIN 0047  
                 ?_ButtonInt_config 0046                    _phasesPhaseAngle 1FD4  
                ??_ButtonInt_config 004B                      _exitPhaseAngle 000000  
              statePhaseAngle@phase 0040                            ??___wmul 004A  
                       __pdataBANK0 0081            __size_of_LCDNokia_gotoXY 001C  
       generalView@currentMainMenu2 0031                    LCD_delay@counter 0046  
                       __pbssCOMRAM 0001                         ??_LCD_delay 0046  
             __end_of_GPIO_clearPIN 1BEA                    statePower1@phase 0044  
                  statePower2@phase 0043                    ?_SPI_enableClock 0046  
              SPI_enablePins@serial 0046                 __end_of_GPIO_setPIN 1B7C  
                     SPI_write@data 0046                       __pmediumconst 1DB6  
            ?_GPIO_dataDirectionPIN 0046                __end_of_StateProgram 1FA7  
                    __size_of_delay 0028                           _exitRmsVI 000000  
                      delay@counter 004A                         ??_SPI_write 0046  
                       _generalView 000000                      ___wmul@product 004A  
               stateFrequency@phase 003F                        _phasesPower1 1FBD  
                      _phasesPower2 1FE0            sendData@currentMainMenu4 002D  
                          _PIR1bits 000F9E                           main@F3300 0081  
       vectorPower1@currentPower1_3 000E                 __end_of_phasesRmsVI 1FE0  
                      _viPhaseAngle 000000    statePowerFactor@phasePowerFactor 0035  
                 ___wmul@multiplier 0046                            _SPI_init 1A18  
showTemperature@currentTemperature1 0063               __end_ofsendData@F3425 1FEB  
                    expBASE10@value 0001                   ??_LCDNokia_gotoXY 004F  
                         copy_data0 19EA                     _phasesFrequency 1FF4  
                       _GPIO_setPIN 1B14              LCDNokia_writeByte@data 004C  
                          __Hrparam 0000                        _neutralRmsVI 000000  
                          __Lrparam 0000             __size_of_LCDNokia_clear 0038  
                        _ANSEL0bits 000FB8            __end_of_phasesPhaseAngle 1FDA  
                     _showFrequency 000000                   ?_GPIO_sourceClock 0046  
                          _fhPower2 000000                         _initialLoad 000000  
                ??_GPIO_sourceClock 0046                            __ptext10 1842  
                          __ptext11 185E                            __ptext12 1834  
                          __ptext13 1B14                            __ptext14 1B7C  
                          __ptext15 1AB4                            __ptext16 18FE  
                          __ptext17 1CDA    phPowerFactor@currentPowerFactor1 002B  
exitPowerFactor@currentPowerFactor2 0029          __end_of_LCDNokia_writeByte 1884  
                          _phPower1 000000                            _phPower2 000000  
                     __size_of_main 0054                            _sendData 000000  
                       _phasesRmsVI 1FDA                            _viewMenu 000000  
                          main@test 005F           __size_of_ButtonInt_config 0030  
                    _phasesMainMenu 1FC5             __end_of_phasesFrequency 1FF8  
            __size_of_LCDNokia_init 0072                  stateMainMenu@phase 0045  
         exitPower1@currentPower1_4 000B          GPIO_dataDirectionPIN@state 0047  
                      _vectorPower1 000000               statePowerFactor@phase 0041  
          GPIO_dataDirectionPIN@pin 0046                        _StateProgram 1F97  
           ??_GPIO_dataDirectionPIN 0048              __end_of_phasesMainMenu 1FCD  
         exitPower2@currentPower2_3 007E                          _SSPCONbits 000FC6  
                        _SPI_Config 1FFC  
